

Microchip Technology PIC18 LITE Macro Assembler V1.41 build -162212810 
                                                                                               Sun Aug 30 00:11:18 2020

Microchip Technology Omniscient Code Generator v1.41 (Free mode) build 201701250102
     1                           	processor	18F4520
     2                           	fnconf	rparam,??,?,0
     3                           	opt	pw 120
     4                           	opt	lm
     5                           	psect	idataCOMRAM,global,class=CODE,delta=1,noexec
     6                           	psect	mediumconst,global,reloc=2,class=MEDIUMCONST,delta=1,noexec
     7                           	psect	nvCOMRAM,global,class=COMRAM,space=1,delta=1,noexec
     8                           	psect	cinit,global,reloc=2,class=CODE,delta=1
     9                           	psect	bssCOMRAM,global,class=COMRAM,space=1,delta=1,noexec
    10                           	psect	dataCOMRAM,global,class=COMRAM,space=1,delta=1,noexec
    11                           	psect	bssBANK1,global,class=BANK1,space=1,delta=1,lowdata,noexec
    12                           	psect	bssBANK2,global,class=BANK2,space=1,delta=1,lowdata,noexec
    13                           	psect	cstackBANK0,global,class=BANK0,space=1,delta=1,noexec
    14                           	psect	cstackCOMRAM,global,class=COMRAM,space=1,delta=1,noexec
    15                           	psect	text0,global,reloc=2,class=CODE,delta=1
    16                           	psect	text1,global,reloc=2,class=CODE,delta=1
    17                           	psect	text2,global,reloc=2,class=CODE,delta=1
    18                           	psect	text3,global,reloc=2,class=CODE,delta=1
    19                           	psect	text4,global,reloc=2,class=CODE,delta=1
    20                           	psect	text5,global,reloc=2,class=CODE,delta=1
    21                           	psect	text6,global,reloc=2,class=CODE,delta=1
    22                           	psect	text7,global,reloc=2,class=CODE,delta=1
    23                           	psect	text8,global,reloc=2,class=CODE,delta=1
    24                           	psect	text9,global,reloc=2,class=CODE,delta=1
    25                           	psect	intcode,global,reloc=2,class=CODE,delta=1
    26                           	psect	intcode_body,global,reloc=2,class=CODE,delta=1
    27                           	psect	text11,global,reloc=2,class=CODE,delta=1
    28                           	psect	text12,global,reloc=2,class=CODE,delta=1
    29                           	psect	intsave_regs,global,class=BIGRAM,space=1,delta=1,noexec
    30                           	psect	rparam,global,class=COMRAM,space=1,delta=1,noexec
    31                           	psect	temp,global,ovrld,common,class=COMRAM,space=1,delta=1
    32  0000                     
    33                           ; Version 1.41
    34                           ; Generated 25/01/2017 GMT
    35                           ; 
    36                           ; Copyright © 2017, Microchip Technology Inc. and its subsidiaries ("Microchip")
    37                           ; All rights reserved.
    38                           ; 
    39                           ; This software is developed by Microchip Technology Inc. and its subsidiaries ("Microch
      +                          ip").
    40                           ; 
    41                           ; Redistribution and use in source and binary forms, with or without modification, are
    42                           ; permitted provided that the following conditions are met:
    43                           ; 
    44                           ;     1. Redistributions of source code must retain the above copyright notice, this lis
      +                          t of
    45                           ;        conditions and the following disclaimer.
    46                           ; 
    47                           ;     2. Redistributions in binary form must reproduce the above copyright notice, this 
      +                          list
    48                           ;        of conditions and the following disclaimer in the documentation and/or other
    49                           ;        materials provided with the distribution.
    50                           ; 
    51                           ;     3. Microchip's name may not be used to endorse or promote products derived from th
      +                          is
    52                           ;        software without specific prior written permission.
    53                           ; 
    54                           ; THIS SOFTWARE IS PROVIDED BY MICROCHIP "AS IS" AND ANY EXPRESS OR IMPLIED WARRANTIES,
    55                           ; INCLUDING, BUT NOT LIMITED TO, THE IMPLIED WARRANTIES OF MERCHANTABILITY AND FITNESS F
      +                          OR
    56                           ; PURPOSE ARE DISCLAIMED.  IN NO EVENT SHALL MICROCHIP BE LIABLE FOR ANY DIRECT, INDIREC
      +                          T,
    57                           ; INCIDENTAL, SPECIAL, EXEMPLARY, OR CONSEQUENTIAL DAMAGES (INCLUDING BUT NOT LIMITED TO
    58                           ; PROCUREMENT OF SUBSTITUTE GOODS OR SERVICES; LOSS OF USE, DATA OR PROFITS; OR BUSINESS
    59                           ; INTERRUPTION) HOWSOEVER CAUSED AND ON ANY THEORY OF LIABILITY, WHETHER IN CONTRACT, ST
      +                          RICT
    60                           ; LIABILITY, OR TORT (INCLUDING NEGLIGENCE OR OTHERWISE) ARISING IN ANY WAY OUT OF THE U
      +                          SE OF
    61                           ; THIS SOFTWARE, EVEN IF ADVISED OF THE POSSIBILITY OF SUCH DAMAGE.
    62                           ; 
    63                           ; 
    64                           ; Code-generator required, PIC18F4520 Definitions
    65                           ; 
    66                           ; SFR Addresses
    67  0000                     
    68                           	psect	idataCOMRAM
    69  000344                     __pidataCOMRAM:
    70                           	opt stack 0
    71                           
    72                           ;initializer for _ms
    73  000344  66                 	db	102
    74                           
    75                           	psect	mediumconst
    76  00773A                     __pmediumconst:
    77                           	opt stack 0
    78  00773A  00                 	db	0
    79  00773B                     _patg:
    80                           	opt stack 0
    81  00773B  0F                 	db	15
    82  00773C  10                 	db	16
    83  00773D  20                 	db	32
    84  00773E  20                 	db	32
    85  00773F  20                 	db	32
    86  007740  2F                 	db	47
    87  007741  20                 	db	32
    88  007742  2F                 	db	47
    89  007743  24                 	db	36
    90  007744  22                 	db	34
    91  007745  24                 	db	36
    92  007746  2F                 	db	47
    93  007747  20                 	db	32
    94  007748  20                 	db	32
    95  007749  20                 	db	32
    96  00774A  20                 	db	32
    97  00774B  20                 	db	32
    98  00774C  20                 	db	32
    99  00774D  20                 	db	32
   100  00774E  20                 	db	32
   101  00774F  20                 	db	32
   102  007750  20                 	db	32
   103  007751  20                 	db	32
   104  007752  20                 	db	32
   105  007753  20                 	db	32
   106  007754  20                 	db	32
   107  007755  20                 	db	32
   108  007756  20                 	db	32
   109  007757  20                 	db	32
   110  007758  20                 	db	32
   111  007759  20                 	db	32
   112  00775A  20                 	db	32
   113  00775B  20                 	db	32
   114  00775C  20                 	db	32
   115  00775D  20                 	db	32
   116  00775E  20                 	db	32
   117  00775F  20                 	db	32
   118  007760  28                 	db	40
   119  007761  29                 	db	41
   120  007762  2F                 	db	47
   121  007763  2F                 	db	47
   122  007764  29                 	db	41
   123  007765  28                 	db	40
   124  007766  20                 	db	32
   125  007767  21                 	db	33
   126  007768  23                 	db	35
   127  007769  10                 	db	16
   128  00776A  0F                 	db	15
   129  00776B  FF                 	db	255
   130  00776C  00                 	db	0
   131  00776D  23                 	db	35
   132  00776E  A2                 	db	162
   133  00776F  A3                 	db	163
   134  007770  A0                 	db	160
   135  007771  2B                 	db	43
   136  007772  A0                 	db	160
   137  007773  2F                 	db	47
   138  007774  24                 	db	36
   139  007775  26                 	db	38
   140  007776  A4                 	db	164
   141  007777  2F                 	db	47
   142  007778  00                 	db	0
   143  007779  00                 	db	0
   144  00777A  00                 	db	0
   145  00777B  00                 	db	0
   146  00777C  00                 	db	0
   147  00777D  00                 	db	0
   148  00777E  00                 	db	0
   149  00777F  00                 	db	0
   150  007780  00                 	db	0
   151  007781  FF                 	db	255
   152  007782  FF                 	db	255
   153  007783  18                 	db	24
   154  007784  18                 	db	24
   155  007785  18                 	db	24
   156  007786  F8                 	db	248
   157  007787  F8                 	db	248
   158  007788  00                 	db	0
   159  007789  00                 	db	0
   160  00778A  00                 	db	0
   161  00778B  00                 	db	0
   162  00778C  00                 	db	0
   163  00778D  7A                 	db	122
   164  00778E  F9                 	db	249
   165  00778F  C0                 	db	192
   166  007790  C0                 	db	192
   167  007791  E0                 	db	224
   168  007792  F0                 	db	240
   169  007793  F0                 	db	240
   170  007794  E0                 	db	224
   171  007795  C0                 	db	192
   172  007796  C0                 	db	192
   173  007797  E0                 	db	224
   174  007798  F0                 	db	240
   175  007799  00                 	db	0
   176  00779A  FF                 	db	255
   177  00779B  C0                 	db	192
   178  00779C  20                 	db	32
   179  00779D  90                 	db	144
   180  00779E  10                 	db	16
   181  00779F  90                 	db	144
   182  0077A0  10                 	db	16
   183  0077A1  90                 	db	144
   184  0077A2  10                 	db	16
   185  0077A3  90                 	db	144
   186  0077A4  10                 	db	16
   187  0077A5  10                 	db	16
   188  0077A6  10                 	db	16
   189  0077A7  90                 	db	144
   190  0077A8  10                 	db	16
   191  0077A9  10                 	db	16
   192  0077AA  10                 	db	16
   193  0077AB  10                 	db	16
   194  0077AC  10                 	db	16
   195  0077AD  10                 	db	16
   196  0077AE  10                 	db	16
   197  0077AF  10                 	db	16
   198  0077B0  10                 	db	16
   199  0077B1  10                 	db	16
   200  0077B2  10                 	db	16
   201  0077B3  10                 	db	16
   202  0077B4  10                 	db	16
   203  0077B5  10                 	db	16
   204  0077B6  10                 	db	16
   205  0077B7  10                 	db	16
   206  0077B8  10                 	db	16
   207  0077B9  10                 	db	16
   208  0077BA  10                 	db	16
   209  0077BB  10                 	db	16
   210  0077BC  10                 	db	16
   211  0077BD  90                 	db	144
   212  0077BE  10                 	db	16
   213  0077BF  10                 	db	16
   214  0077C0  10                 	db	16
   215  0077C1  10                 	db	16
   216  0077C2  10                 	db	16
   217  0077C3  10                 	db	16
   218  0077C4  10                 	db	16
   219  0077C5  10                 	db	16
   220  0077C6  10                 	db	16
   221  0077C7  10                 	db	16
   222  0077C8  10                 	db	16
   223  0077C9  20                 	db	32
   224  0077CA  C0                 	db	192
   225  0077CB  00                 	db	0
   226  0077CC  00                 	db	0
   227  0077CD  00                 	db	0
   228  0077CE  00                 	db	0
   229  0077CF  00                 	db	0
   230  0077D0  00                 	db	0
   231  0077D1  00                 	db	0
   232  0077D2  00                 	db	0
   233  0077D3  00                 	db	0
   234  0077D4  00                 	db	0
   235  0077D5  00                 	db	0
   236  0077D6  00                 	db	0
   237  0077D7  00                 	db	0
   238  0077D8  00                 	db	0
   239  0077D9  00                 	db	0
   240  0077DA  00                 	db	0
   241  0077DB  00                 	db	0
   242  0077DC  00                 	db	0
   243  0077DD  00                 	db	0
   244  0077DE  00                 	db	0
   245  0077DF  00                 	db	0
   246  0077E0  00                 	db	0
   247  0077E1  00                 	db	0
   248  0077E2  00                 	db	0
   249  0077E3  00                 	db	0
   250  0077E4  00                 	db	0
   251  0077E5  00                 	db	0
   252  0077E6  00                 	db	0
   253  0077E7  00                 	db	0
   254  0077E8  00                 	db	0
   255  0077E9  00                 	db	0
   256  0077EA  00                 	db	0
   257  0077EB  00                 	db	0
   258  0077EC  00                 	db	0
   259  0077ED  00                 	db	0
   260  0077EE  00                 	db	0
   261  0077EF  00                 	db	0
   262  0077F0  00                 	db	0
   263  0077F1  00                 	db	0
   264  0077F2  00                 	db	0
   265  0077F3  00                 	db	0
   266  0077F4  00                 	db	0
   267  0077F5  00                 	db	0
   268  0077F6  00                 	db	0
   269  0077F7  00                 	db	0
   270  0077F8  00                 	db	0
   271  0077F9  00                 	db	0
   272  0077FA  00                 	db	0
   273  0077FB  00                 	db	0
   274  0077FC  00                 	db	0
   275  0077FD  00                 	db	0
   276  0077FE  00                 	db	0
   277  0077FF  00                 	db	0
   278  007800  00                 	db	0
   279  007801  00                 	db	0
   280  007802  00                 	db	0
   281  007803  00                 	db	0
   282  007804  00                 	db	0
   283  007805  00                 	db	0
   284  007806  00                 	db	0
   285  007807  00                 	db	0
   286  007808  00                 	db	0
   287  007809  00                 	db	0
   288  00780A  00                 	db	0
   289  00780B  00                 	db	0
   290  00780C  00                 	db	0
   291  00780D  00                 	db	0
   292  00780E  00                 	db	0
   293  00780F  00                 	db	0
   294  007810  00                 	db	0
   295  007811  00                 	db	0
   296  007812  00                 	db	0
   297  007813  00                 	db	0
   298  007814  00                 	db	0
   299  007815  00                 	db	0
   300  007816  00                 	db	0
   301  007817  00                 	db	0
   302  007818  00                 	db	0
   303  007819  00                 	db	0
   304  00781A  00                 	db	0
   305  00781B  00                 	db	0
   306  00781C  00                 	db	0
   307  00781D  00                 	db	0
   308  00781E  00                 	db	0
   309  00781F  00                 	db	0
   310  007820  00                 	db	0
   311  007821  00                 	db	0
   312  007822  00                 	db	0
   313  007823  00                 	db	0
   314  007824  00                 	db	0
   315  007825  00                 	db	0
   316  007826  00                 	db	0
   317  007827  00                 	db	0
   318  007828  00                 	db	0
   319  007829  00                 	db	0
   320  00782A  00                 	db	0
   321  00782B  00                 	db	0
   322  00782C  00                 	db	0
   323  00782D  00                 	db	0
   324  00782E  00                 	db	0
   325  00782F  00                 	db	0
   326  007830  00                 	db	0
   327  007831  00                 	db	0
   328  007832  00                 	db	0
   329  007833  00                 	db	0
   330  007834  00                 	db	0
   331  007835  00                 	db	0
   332  007836  00                 	db	0
   333  007837  00                 	db	0
   334  007838  00                 	db	0
   335  007839  00                 	db	0
   336  00783A  00                 	db	0
   337  00783B  00                 	db	0
   338  00783C  00                 	db	0
   339  00783D  00                 	db	0
   340  00783E  00                 	db	0
   341  00783F  00                 	db	0
   342  007840  00                 	db	0
   343  007841  00                 	db	0
   344  007842  00                 	db	0
   345  007843  00                 	db	0
   346  007844  00                 	db	0
   347  007845  00                 	db	0
   348  007846  00                 	db	0
   349  007847  00                 	db	0
   350  007848  00                 	db	0
   351  007849  00                 	db	0
   352  00784A  00                 	db	0
   353  00784B  00                 	db	0
   354  00784C  00                 	db	0
   355  00784D  00                 	db	0
   356  00784E  00                 	db	0
   357  00784F  00                 	db	0
   358  007850  00                 	db	0
   359  007851  00                 	db	0
   360  007852  00                 	db	0
   361  007853  00                 	db	0
   362  007854  00                 	db	0
   363  007855  00                 	db	0
   364  007856  00                 	db	0
   365  007857  00                 	db	0
   366  007858  00                 	db	0
   367  007859  00                 	db	0
   368  00785A  00                 	db	0
   369  00785B                     __end_of_patg:
   370                           	opt stack 0
   371  00785B                     _patf:
   372                           	opt stack 0
   373  00785B  0F                 	db	15
   374  00785C  10                 	db	16
   375  00785D  20                 	db	32
   376  00785E  20                 	db	32
   377  00785F  20                 	db	32
   378  007860  20                 	db	32
   379  007861  20                 	db	32
   380  007862  20                 	db	32
   381  007863  20                 	db	32
   382  007864  20                 	db	32
   383  007865  20                 	db	32
   384  007866  20                 	db	32
   385  007867  20                 	db	32
   386  007868  20                 	db	32
   387  007869  20                 	db	32
   388  00786A  20                 	db	32
   389  00786B  20                 	db	32
   390  00786C  20                 	db	32
   391  00786D  20                 	db	32
   392  00786E  20                 	db	32
   393  00786F  20                 	db	32
   394  007870  20                 	db	32
   395  007871  20                 	db	32
   396  007872  20                 	db	32
   397  007873  20                 	db	32
   398  007874  20                 	db	32
   399  007875  20                 	db	32
   400  007876  20                 	db	32
   401  007877  20                 	db	32
   402  007878  20                 	db	32
   403  007879  20                 	db	32
   404  00787A  20                 	db	32
   405  00787B  20                 	db	32
   406  00787C  20                 	db	32
   407  00787D  20                 	db	32
   408  00787E  20                 	db	32
   409  00787F  20                 	db	32
   410  007880  20                 	db	32
   411  007881  29                 	db	41
   412  007882  26                 	db	38
   413  007883  22                 	db	34
   414  007884  21                 	db	33
   415  007885  2A                 	db	42
   416  007886  24                 	db	36
   417  007887  22                 	db	34
   418  007888  20                 	db	32
   419  007889  10                 	db	16
   420  00788A  0F                 	db	15
   421  00788B  FF                 	db	255
   422  00788C  00                 	db	0
   423  00788D  00                 	db	0
   424  00788E  00                 	db	0
   425  00788F  01                 	db	1
   426  007890  01                 	db	1
   427  007891  1F                 	db	31
   428  007892  00                 	db	0
   429  007893  1F                 	db	31
   430  007894  08                 	db	8
   431  007895  04                 	db	4
   432  007896  08                 	db	8
   433  007897  1F                 	db	31
   434  007898  00                 	db	0
   435  007899  00                 	db	0
   436  00789A  00                 	db	0
   437  00789B  00                 	db	0
   438  00789C  00                 	db	0
   439  00789D  00                 	db	0
   440  00789E  00                 	db	0
   441  00789F  00                 	db	0
   442  0078A0  00                 	db	0
   443  0078A1  FF                 	db	255
   444  0078A2  FF                 	db	255
   445  0078A3  18                 	db	24
   446  0078A4  18                 	db	24
   447  0078A5  18                 	db	24
   448  0078A6  F8                 	db	248
   449  0078A7  F8                 	db	248
   450  0078A8  00                 	db	0
   451  0078A9  00                 	db	0
   452  0078AA  00                 	db	0
   453  0078AB  00                 	db	0
   454  0078AC  01                 	db	1
   455  0078AD  1E                 	db	30
   456  0078AE  22                 	db	34
   457  0078AF  42                 	db	66
   458  0078B0  82                 	db	130
   459  0078B1  04                 	db	4
   460  0078B2  08                 	db	8
   461  0078B3  10                 	db	16
   462  0078B4  20                 	db	32
   463  0078B5  C0                 	db	192
   464  0078B6  40                 	db	64
   465  0078B7  20                 	db	32
   466  0078B8  00                 	db	0
   467  0078B9  00                 	db	0
   468  0078BA  FF                 	db	255
   469  0078BB  C0                 	db	192
   470  0078BC  20                 	db	32
   471  0078BD  10                 	db	16
   472  0078BE  10                 	db	16
   473  0078BF  10                 	db	16
   474  0078C0  10                 	db	16
   475  0078C1  10                 	db	16
   476  0078C2  10                 	db	16
   477  0078C3  10                 	db	16
   478  0078C4  10                 	db	16
   479  0078C5  10                 	db	16
   480  0078C6  10                 	db	16
   481  0078C7  10                 	db	16
   482  0078C8  10                 	db	16
   483  0078C9  10                 	db	16
   484  0078CA  10                 	db	16
   485  0078CB  10                 	db	16
   486  0078CC  10                 	db	16
   487  0078CD  10                 	db	16
   488  0078CE  10                 	db	16
   489  0078CF  10                 	db	16
   490  0078D0  10                 	db	16
   491  0078D1  10                 	db	16
   492  0078D2  10                 	db	16
   493  0078D3  10                 	db	16
   494  0078D4  10                 	db	16
   495  0078D5  10                 	db	16
   496  0078D6  10                 	db	16
   497  0078D7  10                 	db	16
   498  0078D8  10                 	db	16
   499  0078D9  10                 	db	16
   500  0078DA  10                 	db	16
   501  0078DB  10                 	db	16
   502  0078DC  10                 	db	16
   503  0078DD  10                 	db	16
   504  0078DE  10                 	db	16
   505  0078DF  10                 	db	16
   506  0078E0  10                 	db	16
   507  0078E1  10                 	db	16
   508  0078E2  10                 	db	16
   509  0078E3  10                 	db	16
   510  0078E4  10                 	db	16
   511  0078E5  10                 	db	16
   512  0078E6  10                 	db	16
   513  0078E7  10                 	db	16
   514  0078E8  10                 	db	16
   515  0078E9  20                 	db	32
   516  0078EA  C0                 	db	192
   517  0078EB  00                 	db	0
   518  0078EC  00                 	db	0
   519  0078ED  00                 	db	0
   520  0078EE  00                 	db	0
   521  0078EF  00                 	db	0
   522  0078F0  00                 	db	0
   523  0078F1  00                 	db	0
   524  0078F2  00                 	db	0
   525  0078F3  00                 	db	0
   526  0078F4  00                 	db	0
   527  0078F5  00                 	db	0
   528  0078F6  00                 	db	0
   529  0078F7  00                 	db	0
   530  0078F8  00                 	db	0
   531  0078F9  00                 	db	0
   532  0078FA  00                 	db	0
   533  0078FB  00                 	db	0
   534  0078FC  00                 	db	0
   535  0078FD  00                 	db	0
   536  0078FE  00                 	db	0
   537  0078FF  00                 	db	0
   538  007900  00                 	db	0
   539  007901  00                 	db	0
   540  007902  00                 	db	0
   541  007903  00                 	db	0
   542  007904  00                 	db	0
   543  007905  00                 	db	0
   544  007906  00                 	db	0
   545  007907  00                 	db	0
   546  007908  00                 	db	0
   547  007909  00                 	db	0
   548  00790A  00                 	db	0
   549  00790B  00                 	db	0
   550  00790C  00                 	db	0
   551  00790D  00                 	db	0
   552  00790E  00                 	db	0
   553  00790F  00                 	db	0
   554  007910  00                 	db	0
   555  007911  00                 	db	0
   556  007912  00                 	db	0
   557  007913  00                 	db	0
   558  007914  00                 	db	0
   559  007915  00                 	db	0
   560  007916  00                 	db	0
   561  007917  00                 	db	0
   562  007918  00                 	db	0
   563  007919  00                 	db	0
   564  00791A  00                 	db	0
   565  00791B  00                 	db	0
   566  00791C  00                 	db	0
   567  00791D  00                 	db	0
   568  00791E  00                 	db	0
   569  00791F  00                 	db	0
   570  007920  00                 	db	0
   571  007921  00                 	db	0
   572  007922  00                 	db	0
   573  007923  00                 	db	0
   574  007924  00                 	db	0
   575  007925  00                 	db	0
   576  007926  00                 	db	0
   577  007927  00                 	db	0
   578  007928  00                 	db	0
   579  007929  00                 	db	0
   580  00792A  00                 	db	0
   581  00792B  00                 	db	0
   582  00792C  00                 	db	0
   583  00792D  00                 	db	0
   584  00792E  00                 	db	0
   585  00792F  00                 	db	0
   586  007930  00                 	db	0
   587  007931  00                 	db	0
   588  007932  00                 	db	0
   589  007933  00                 	db	0
   590  007934  00                 	db	0
   591  007935  00                 	db	0
   592  007936  00                 	db	0
   593  007937  00                 	db	0
   594  007938  00                 	db	0
   595  007939  00                 	db	0
   596  00793A  00                 	db	0
   597  00793B  00                 	db	0
   598  00793C  00                 	db	0
   599  00793D  00                 	db	0
   600  00793E  00                 	db	0
   601  00793F  00                 	db	0
   602  007940  00                 	db	0
   603  007941  00                 	db	0
   604  007942  00                 	db	0
   605  007943  00                 	db	0
   606  007944  00                 	db	0
   607  007945  00                 	db	0
   608  007946  00                 	db	0
   609  007947  00                 	db	0
   610  007948  00                 	db	0
   611  007949  00                 	db	0
   612  00794A  00                 	db	0
   613  00794B  00                 	db	0
   614  00794C  00                 	db	0
   615  00794D  00                 	db	0
   616  00794E  00                 	db	0
   617  00794F  00                 	db	0
   618  007950  00                 	db	0
   619  007951  00                 	db	0
   620  007952  00                 	db	0
   621  007953  00                 	db	0
   622  007954  00                 	db	0
   623  007955  00                 	db	0
   624  007956  00                 	db	0
   625  007957  00                 	db	0
   626  007958  00                 	db	0
   627  007959  00                 	db	0
   628  00795A  00                 	db	0
   629  00795B  00                 	db	0
   630  00795C  00                 	db	0
   631  00795D  00                 	db	0
   632  00795E  00                 	db	0
   633  00795F  00                 	db	0
   634  007960  00                 	db	0
   635  007961  00                 	db	0
   636  007962  00                 	db	0
   637  007963  00                 	db	0
   638  007964  00                 	db	0
   639  007965  00                 	db	0
   640  007966  00                 	db	0
   641  007967  00                 	db	0
   642  007968  00                 	db	0
   643  007969  00                 	db	0
   644  00796A  00                 	db	0
   645  00796B  00                 	db	0
   646  00796C  00                 	db	0
   647  00796D  00                 	db	0
   648  00796E  00                 	db	0
   649  00796F  00                 	db	0
   650  007970  00                 	db	0
   651  007971  00                 	db	0
   652  007972  00                 	db	0
   653  007973  00                 	db	0
   654  007974  00                 	db	0
   655  007975  00                 	db	0
   656  007976  00                 	db	0
   657  007977  00                 	db	0
   658  007978  00                 	db	0
   659  007979  00                 	db	0
   660  00797A  00                 	db	0
   661  00797B                     __end_of_patf:
   662                           	opt stack 0
   663  00797B                     _pate:
   664                           	opt stack 0
   665  00797B  0F                 	db	15
   666  00797C  10                 	db	16
   667  00797D  20                 	db	32
   668  00797E  20                 	db	32
   669  00797F  20                 	db	32
   670  007980  20                 	db	32
   671  007981  20                 	db	32
   672  007982  20                 	db	32
   673  007983  20                 	db	32
   674  007984  20                 	db	32
   675  007985  20                 	db	32
   676  007986  20                 	db	32
   677  007987  20                 	db	32
   678  007988  20                 	db	32
   679  007989  20                 	db	32
   680  00798A  20                 	db	32
   681  00798B  20                 	db	32
   682  00798C  20                 	db	32
   683  00798D  20                 	db	32
   684  00798E  20                 	db	32
   685  00798F  20                 	db	32
   686  007990  20                 	db	32
   687  007991  20                 	db	32
   688  007992  20                 	db	32
   689  007993  20                 	db	32
   690  007994  20                 	db	32
   691  007995  20                 	db	32
   692  007996  20                 	db	32
   693  007997  20                 	db	32
   694  007998  20                 	db	32
   695  007999  20                 	db	32
   696  00799A  20                 	db	32
   697  00799B  20                 	db	32
   698  00799C  20                 	db	32
   699  00799D  20                 	db	32
   700  00799E  20                 	db	32
   701  00799F  20                 	db	32
   702  0079A0  20                 	db	32
   703  0079A1  20                 	db	32
   704  0079A2  20                 	db	32
   705  0079A3  20                 	db	32
   706  0079A4  20                 	db	32
   707  0079A5  2F                 	db	47
   708  0079A6  27                 	db	39
   709  0079A7  23                 	db	35
   710  0079A8  21                 	db	33
   711  0079A9  10                 	db	16
   712  0079AA  0F                 	db	15
   713  0079AB  FF                 	db	255
   714  0079AC  00                 	db	0
   715  0079AD  1F                 	db	31
   716  0079AE  08                 	db	8
   717  0079AF  04                 	db	4
   718  0079B0  08                 	db	8
   719  0079B1  1F                 	db	31
   720  0079B2  00                 	db	0
   721  0079B3  1F                 	db	31
   722  0079B4  08                 	db	8
   723  0079B5  04                 	db	4
   724  0079B6  08                 	db	8
   725  0079B7  1F                 	db	31
   726  0079B8  00                 	db	0
   727  0079B9  00                 	db	0
   728  0079BA  00                 	db	0
   729  0079BB  00                 	db	0
   730  0079BC  00                 	db	0
   731  0079BD  00                 	db	0
   732  0079BE  00                 	db	0
   733  0079BF  00                 	db	0
   734  0079C0  00                 	db	0
   735  0079C1  FF                 	db	255
   736  0079C2  FF                 	db	255
   737  0079C3  18                 	db	24
   738  0079C4  18                 	db	24
   739  0079C5  18                 	db	24
   740  0079C6  F8                 	db	248
   741  0079C7  F8                 	db	248
   742  0079C8  00                 	db	0
   743  0079C9  00                 	db	0
   744  0079CA  00                 	db	0
   745  0079CB  04                 	db	4
   746  0079CC  06                 	db	6
   747  0079CD  07                 	db	7
   748  0079CE  07                 	db	7
   749  0079CF  70                 	db	112
   750  0079D0  88                 	db	136
   751  0079D1  88                 	db	136
   752  0079D2  88                 	db	136
   753  0079D3  FF                 	db	255
   754  0079D4  00                 	db	0
   755  0079D5  00                 	db	0
   756  0079D6  00                 	db	0
   757  0079D7  00                 	db	0
   758  0079D8  00                 	db	0
   759  0079D9  00                 	db	0
   760  0079DA  FF                 	db	255
   761  0079DB  C0                 	db	192
   762  0079DC  20                 	db	32
   763  0079DD  10                 	db	16
   764  0079DE  10                 	db	16
   765  0079DF  10                 	db	16
   766  0079E0  10                 	db	16
   767  0079E1  10                 	db	16
   768  0079E2  10                 	db	16
   769  0079E3  10                 	db	16
   770  0079E4  10                 	db	16
   771  0079E5  10                 	db	16
   772  0079E6  10                 	db	16
   773  0079E7  10                 	db	16
   774  0079E8  10                 	db	16
   775  0079E9  10                 	db	16
   776  0079EA  10                 	db	16
   777  0079EB  10                 	db	16
   778  0079EC  10                 	db	16
   779  0079ED  10                 	db	16
   780  0079EE  10                 	db	16
   781  0079EF  10                 	db	16
   782  0079F0  10                 	db	16
   783  0079F1  10                 	db	16
   784  0079F2  10                 	db	16
   785  0079F3  10                 	db	16
   786  0079F4  10                 	db	16
   787  0079F5  10                 	db	16
   788  0079F6  10                 	db	16
   789  0079F7  10                 	db	16
   790  0079F8  10                 	db	16
   791  0079F9  10                 	db	16
   792  0079FA  10                 	db	16
   793  0079FB  10                 	db	16
   794  0079FC  10                 	db	16
   795  0079FD  10                 	db	16
   796  0079FE  90                 	db	144
   797  0079FF  10                 	db	16
   798  007A00  10                 	db	16
   799  007A01  10                 	db	16
   800  007A02  10                 	db	16
   801  007A03  D0                 	db	208
   802  007A04  10                 	db	16
   803  007A05  10                 	db	16
   804  007A06  10                 	db	16
   805  007A07  10                 	db	16
   806  007A08  10                 	db	16
   807  007A09  20                 	db	32
   808  007A0A  C0                 	db	192
   809  007A0B  00                 	db	0
   810  007A0C  00                 	db	0
   811  007A0D  00                 	db	0
   812  007A0E  00                 	db	0
   813  007A0F  00                 	db	0
   814  007A10  00                 	db	0
   815  007A11  00                 	db	0
   816  007A12  00                 	db	0
   817  007A13  00                 	db	0
   818  007A14  00                 	db	0
   819  007A15  00                 	db	0
   820  007A16  00                 	db	0
   821  007A17  00                 	db	0
   822  007A18  00                 	db	0
   823  007A19  00                 	db	0
   824  007A1A  00                 	db	0
   825  007A1B  00                 	db	0
   826  007A1C  00                 	db	0
   827  007A1D  00                 	db	0
   828  007A1E  00                 	db	0
   829  007A1F  00                 	db	0
   830  007A20  00                 	db	0
   831  007A21  00                 	db	0
   832  007A22  00                 	db	0
   833  007A23  00                 	db	0
   834  007A24  00                 	db	0
   835  007A25  00                 	db	0
   836  007A26  00                 	db	0
   837  007A27  00                 	db	0
   838  007A28  00                 	db	0
   839  007A29  00                 	db	0
   840  007A2A  00                 	db	0
   841  007A2B  00                 	db	0
   842  007A2C  00                 	db	0
   843  007A2D  00                 	db	0
   844  007A2E  00                 	db	0
   845  007A2F  00                 	db	0
   846  007A30  00                 	db	0
   847  007A31  00                 	db	0
   848  007A32  00                 	db	0
   849  007A33  00                 	db	0
   850  007A34  00                 	db	0
   851  007A35  00                 	db	0
   852  007A36  00                 	db	0
   853  007A37  00                 	db	0
   854  007A38  00                 	db	0
   855  007A39  00                 	db	0
   856  007A3A  00                 	db	0
   857  007A3B  00                 	db	0
   858  007A3C  00                 	db	0
   859  007A3D  00                 	db	0
   860  007A3E  00                 	db	0
   861  007A3F  00                 	db	0
   862  007A40  00                 	db	0
   863  007A41  00                 	db	0
   864  007A42  00                 	db	0
   865  007A43  00                 	db	0
   866  007A44  00                 	db	0
   867  007A45  00                 	db	0
   868  007A46  00                 	db	0
   869  007A47  00                 	db	0
   870  007A48  00                 	db	0
   871  007A49  00                 	db	0
   872  007A4A  00                 	db	0
   873  007A4B  00                 	db	0
   874  007A4C  00                 	db	0
   875  007A4D  00                 	db	0
   876  007A4E  00                 	db	0
   877  007A4F  00                 	db	0
   878  007A50  00                 	db	0
   879  007A51  00                 	db	0
   880  007A52  00                 	db	0
   881  007A53  00                 	db	0
   882  007A54  00                 	db	0
   883  007A55  00                 	db	0
   884  007A56  00                 	db	0
   885  007A57  00                 	db	0
   886  007A58  00                 	db	0
   887  007A59  00                 	db	0
   888  007A5A  00                 	db	0
   889  007A5B  00                 	db	0
   890  007A5C  00                 	db	0
   891  007A5D  00                 	db	0
   892  007A5E  00                 	db	0
   893  007A5F  00                 	db	0
   894  007A60  00                 	db	0
   895  007A61  00                 	db	0
   896  007A62  00                 	db	0
   897  007A63  00                 	db	0
   898  007A64  00                 	db	0
   899  007A65  00                 	db	0
   900  007A66  00                 	db	0
   901  007A67  00                 	db	0
   902  007A68  00                 	db	0
   903  007A69  00                 	db	0
   904  007A6A  00                 	db	0
   905  007A6B  00                 	db	0
   906  007A6C  00                 	db	0
   907  007A6D  00                 	db	0
   908  007A6E  00                 	db	0
   909  007A6F  00                 	db	0
   910  007A70  00                 	db	0
   911  007A71  00                 	db	0
   912  007A72  00                 	db	0
   913  007A73  00                 	db	0
   914  007A74  00                 	db	0
   915  007A75  00                 	db	0
   916  007A76  00                 	db	0
   917  007A77  00                 	db	0
   918  007A78  00                 	db	0
   919  007A79  00                 	db	0
   920  007A7A  00                 	db	0
   921  007A7B  00                 	db	0
   922  007A7C  00                 	db	0
   923  007A7D  00                 	db	0
   924  007A7E  00                 	db	0
   925  007A7F  00                 	db	0
   926  007A80  00                 	db	0
   927  007A81  00                 	db	0
   928  007A82  00                 	db	0
   929  007A83  00                 	db	0
   930  007A84  00                 	db	0
   931  007A85  00                 	db	0
   932  007A86  00                 	db	0
   933  007A87  00                 	db	0
   934  007A88  00                 	db	0
   935  007A89  00                 	db	0
   936  007A8A  00                 	db	0
   937  007A8B  00                 	db	0
   938  007A8C  00                 	db	0
   939  007A8D  00                 	db	0
   940  007A8E  00                 	db	0
   941  007A8F  00                 	db	0
   942  007A90  00                 	db	0
   943  007A91  00                 	db	0
   944  007A92  00                 	db	0
   945  007A93  00                 	db	0
   946  007A94  00                 	db	0
   947  007A95  00                 	db	0
   948  007A96  00                 	db	0
   949  007A97  00                 	db	0
   950  007A98  00                 	db	0
   951  007A99  00                 	db	0
   952  007A9A  00                 	db	0
   953  007A9B                     __end_of_pate:
   954                           	opt stack 0
   955  007A9B                     _patd:
   956                           	opt stack 0
   957  007A9B  0F                 	db	15
   958  007A9C  10                 	db	16
   959  007A9D  20                 	db	32
   960  007A9E  20                 	db	32
   961  007A9F  20                 	db	32
   962  007AA0  20                 	db	32
   963  007AA1  20                 	db	32
   964  007AA2  20                 	db	32
   965  007AA3  20                 	db	32
   966  007AA4  20                 	db	32
   967  007AA5  20                 	db	32
   968  007AA6  20                 	db	32
   969  007AA7  20                 	db	32
   970  007AA8  20                 	db	32
   971  007AA9  20                 	db	32
   972  007AAA  20                 	db	32
   973  007AAB  20                 	db	32
   974  007AAC  20                 	db	32
   975  007AAD  20                 	db	32
   976  007AAE  20                 	db	32
   977  007AAF  20                 	db	32
   978  007AB0  20                 	db	32
   979  007AB1  20                 	db	32
   980  007AB2  20                 	db	32
   981  007AB3  20                 	db	32
   982  007AB4  20                 	db	32
   983  007AB5  20                 	db	32
   984  007AB6  20                 	db	32
   985  007AB7  20                 	db	32
   986  007AB8  20                 	db	32
   987  007AB9  20                 	db	32
   988  007ABA  20                 	db	32
   989  007ABB  20                 	db	32
   990  007ABC  20                 	db	32
   991  007ABD  20                 	db	32
   992  007ABE  20                 	db	32
   993  007ABF  20                 	db	32
   994  007AC0  20                 	db	32
   995  007AC1  20                 	db	32
   996  007AC2  20                 	db	32
   997  007AC3  21                 	db	33
   998  007AC4  23                 	db	35
   999  007AC5  2F                 	db	47
  1000  007AC6  27                 	db	39
  1001  007AC7  23                 	db	35
  1002  007AC8  21                 	db	33
  1003  007AC9  10                 	db	16
  1004  007ACA  0F                 	db	15
  1005  007ACB  FF                 	db	255
  1006  007ACC  00                 	db	0
  1007  007ACD  1F                 	db	31
  1008  007ACE  08                 	db	8
  1009  007ACF  04                 	db	4
  1010  007AD0  08                 	db	8
  1011  007AD1  1F                 	db	31
  1012  007AD2  00                 	db	0
  1013  007AD3  1F                 	db	31
  1014  007AD4  08                 	db	8
  1015  007AD5  04                 	db	4
  1016  007AD6  08                 	db	8
  1017  007AD7  1F                 	db	31
  1018  007AD8  00                 	db	0
  1019  007AD9  00                 	db	0
  1020  007ADA  00                 	db	0
  1021  007ADB  00                 	db	0
  1022  007ADC  00                 	db	0
  1023  007ADD  00                 	db	0
  1024  007ADE  00                 	db	0
  1025  007ADF  00                 	db	0
  1026  007AE0  00                 	db	0
  1027  007AE1  FF                 	db	255
  1028  007AE2  FF                 	db	255
  1029  007AE3  18                 	db	24
  1030  007AE4  18                 	db	24
  1031  007AE5  18                 	db	24
  1032  007AE6  F8                 	db	248
  1033  007AE7  F8                 	db	248
  1034  007AE8  00                 	db	0
  1035  007AE9  00                 	db	0
  1036  007AEA  00                 	db	0
  1037  007AEB  00                 	db	0
  1038  007AEC  00                 	db	0
  1039  007AED  01                 	db	1
  1040  007AEE  02                 	db	2
  1041  007AEF  04                 	db	4
  1042  007AF0  08                 	db	8
  1043  007AF1  10                 	db	16
  1044  007AF2  E0                 	db	224
  1045  007AF3  E0                 	db	224
  1046  007AF4  E0                 	db	224
  1047  007AF5  C0                 	db	192
  1048  007AF6  80                 	db	128
  1049  007AF7  00                 	db	0
  1050  007AF8  00                 	db	0
  1051  007AF9  00                 	db	0
  1052  007AFA  FF                 	db	255
  1053  007AFB  C0                 	db	192
  1054  007AFC  20                 	db	32
  1055  007AFD  10                 	db	16
  1056  007AFE  10                 	db	16
  1057  007AFF  10                 	db	16
  1058  007B00  10                 	db	16
  1059  007B01  10                 	db	16
  1060  007B02  10                 	db	16
  1061  007B03  10                 	db	16
  1062  007B04  10                 	db	16
  1063  007B05  10                 	db	16
  1064  007B06  10                 	db	16
  1065  007B07  10                 	db	16
  1066  007B08  10                 	db	16
  1067  007B09  10                 	db	16
  1068  007B0A  10                 	db	16
  1069  007B0B  10                 	db	16
  1070  007B0C  10                 	db	16
  1071  007B0D  10                 	db	16
  1072  007B0E  10                 	db	16
  1073  007B0F  10                 	db	16
  1074  007B10  10                 	db	16
  1075  007B11  10                 	db	16
  1076  007B12  10                 	db	16
  1077  007B13  10                 	db	16
  1078  007B14  10                 	db	16
  1079  007B15  10                 	db	16
  1080  007B16  10                 	db	16
  1081  007B17  10                 	db	16
  1082  007B18  10                 	db	16
  1083  007B19  10                 	db	16
  1084  007B1A  10                 	db	16
  1085  007B1B  10                 	db	16
  1086  007B1C  10                 	db	16
  1087  007B1D  10                 	db	16
  1088  007B1E  10                 	db	16
  1089  007B1F  10                 	db	16
  1090  007B20  10                 	db	16
  1091  007B21  10                 	db	16
  1092  007B22  10                 	db	16
  1093  007B23  10                 	db	16
  1094  007B24  10                 	db	16
  1095  007B25  10                 	db	16
  1096  007B26  10                 	db	16
  1097  007B27  10                 	db	16
  1098  007B28  10                 	db	16
  1099  007B29  20                 	db	32
  1100  007B2A  C0                 	db	192
  1101  007B2B  00                 	db	0
  1102  007B2C  00                 	db	0
  1103  007B2D  00                 	db	0
  1104  007B2E  00                 	db	0
  1105  007B2F  00                 	db	0
  1106  007B30  00                 	db	0
  1107  007B31  00                 	db	0
  1108  007B32  00                 	db	0
  1109  007B33  00                 	db	0
  1110  007B34  00                 	db	0
  1111  007B35  00                 	db	0
  1112  007B36  00                 	db	0
  1113  007B37  00                 	db	0
  1114  007B38  00                 	db	0
  1115  007B39  00                 	db	0
  1116  007B3A  00                 	db	0
  1117  007B3B  00                 	db	0
  1118  007B3C  00                 	db	0
  1119  007B3D  00                 	db	0
  1120  007B3E  00                 	db	0
  1121  007B3F  00                 	db	0
  1122  007B40  00                 	db	0
  1123  007B41  00                 	db	0
  1124  007B42  00                 	db	0
  1125  007B43  00                 	db	0
  1126  007B44  00                 	db	0
  1127  007B45  00                 	db	0
  1128  007B46  00                 	db	0
  1129  007B47  00                 	db	0
  1130  007B48  00                 	db	0
  1131  007B49  00                 	db	0
  1132  007B4A  00                 	db	0
  1133  007B4B  00                 	db	0
  1134  007B4C  00                 	db	0
  1135  007B4D  00                 	db	0
  1136  007B4E  00                 	db	0
  1137  007B4F  00                 	db	0
  1138  007B50  00                 	db	0
  1139  007B51  00                 	db	0
  1140  007B52  00                 	db	0
  1141  007B53  00                 	db	0
  1142  007B54  00                 	db	0
  1143  007B55  00                 	db	0
  1144  007B56  00                 	db	0
  1145  007B57  00                 	db	0
  1146  007B58  00                 	db	0
  1147  007B59  00                 	db	0
  1148  007B5A  00                 	db	0
  1149  007B5B  00                 	db	0
  1150  007B5C  00                 	db	0
  1151  007B5D  00                 	db	0
  1152  007B5E  00                 	db	0
  1153  007B5F  00                 	db	0
  1154  007B60  00                 	db	0
  1155  007B61  00                 	db	0
  1156  007B62  00                 	db	0
  1157  007B63  00                 	db	0
  1158  007B64  00                 	db	0
  1159  007B65  00                 	db	0
  1160  007B66  00                 	db	0
  1161  007B67  00                 	db	0
  1162  007B68  00                 	db	0
  1163  007B69  00                 	db	0
  1164  007B6A  00                 	db	0
  1165  007B6B  00                 	db	0
  1166  007B6C  00                 	db	0
  1167  007B6D  00                 	db	0
  1168  007B6E  00                 	db	0
  1169  007B6F  00                 	db	0
  1170  007B70  00                 	db	0
  1171  007B71  00                 	db	0
  1172  007B72  00                 	db	0
  1173  007B73  00                 	db	0
  1174  007B74  00                 	db	0
  1175  007B75  00                 	db	0
  1176  007B76  00                 	db	0
  1177  007B77  00                 	db	0
  1178  007B78  00                 	db	0
  1179  007B79  00                 	db	0
  1180  007B7A  00                 	db	0
  1181  007B7B  00                 	db	0
  1182  007B7C  00                 	db	0
  1183  007B7D  00                 	db	0
  1184  007B7E  00                 	db	0
  1185  007B7F  00                 	db	0
  1186  007B80  00                 	db	0
  1187  007B81  00                 	db	0
  1188  007B82  00                 	db	0
  1189  007B83  00                 	db	0
  1190  007B84  00                 	db	0
  1191  007B85  00                 	db	0
  1192  007B86  00                 	db	0
  1193  007B87  00                 	db	0
  1194  007B88  00                 	db	0
  1195  007B89  00                 	db	0
  1196  007B8A  00                 	db	0
  1197  007B8B  00                 	db	0
  1198  007B8C  00                 	db	0
  1199  007B8D  00                 	db	0
  1200  007B8E  00                 	db	0
  1201  007B8F  00                 	db	0
  1202  007B90  00                 	db	0
  1203  007B91  00                 	db	0
  1204  007B92  00                 	db	0
  1205  007B93  00                 	db	0
  1206  007B94  00                 	db	0
  1207  007B95  00                 	db	0
  1208  007B96  00                 	db	0
  1209  007B97  00                 	db	0
  1210  007B98  00                 	db	0
  1211  007B99  00                 	db	0
  1212  007B9A  00                 	db	0
  1213  007B9B  00                 	db	0
  1214  007B9C  00                 	db	0
  1215  007B9D  00                 	db	0
  1216  007B9E  00                 	db	0
  1217  007B9F  00                 	db	0
  1218  007BA0  00                 	db	0
  1219  007BA1  00                 	db	0
  1220  007BA2  00                 	db	0
  1221  007BA3  00                 	db	0
  1222  007BA4  00                 	db	0
  1223  007BA5  00                 	db	0
  1224  007BA6  00                 	db	0
  1225  007BA7  00                 	db	0
  1226  007BA8  00                 	db	0
  1227  007BA9  00                 	db	0
  1228  007BAA  00                 	db	0
  1229  007BAB  00                 	db	0
  1230  007BAC  00                 	db	0
  1231  007BAD  00                 	db	0
  1232  007BAE  00                 	db	0
  1233  007BAF  00                 	db	0
  1234  007BB0  00                 	db	0
  1235  007BB1  00                 	db	0
  1236  007BB2  00                 	db	0
  1237  007BB3  00                 	db	0
  1238  007BB4  00                 	db	0
  1239  007BB5  00                 	db	0
  1240  007BB6  00                 	db	0
  1241  007BB7  00                 	db	0
  1242  007BB8  00                 	db	0
  1243  007BB9  00                 	db	0
  1244  007BBA  00                 	db	0
  1245  007BBB                     __end_of_patd:
  1246                           	opt stack 0
  1247  007BBB                     _patc:
  1248                           	opt stack 0
  1249  007BBB  3F                 	db	63
  1250  007BBC  40                 	db	64
  1251  007BBD  80                 	db	128
  1252  007BBE  80                 	db	128
  1253  007BBF  80                 	db	128
  1254  007BC0  80                 	db	128
  1255  007BC1  80                 	db	128
  1256  007BC2  80                 	db	128
  1257  007BC3  80                 	db	128
  1258  007BC4  8F                 	db	143
  1259  007BC5  88                 	db	136
  1260  007BC6  B8                 	db	184
  1261  007BC7  A0                 	db	160
  1262  007BC8  A0                 	db	160
  1263  007BC9  A0                 	db	160
  1264  007BCA  B8                 	db	184
  1265  007BCB  88                 	db	136
  1266  007BCC  8F                 	db	143
  1267  007BCD  80                 	db	128
  1268  007BCE  80                 	db	128
  1269  007BCF  80                 	db	128
  1270  007BD0  80                 	db	128
  1271  007BD1  80                 	db	128
  1272  007BD2  80                 	db	128
  1273  007BD3  80                 	db	128
  1274  007BD4  40                 	db	64
  1275  007BD5  3F                 	db	63
  1276  007BD6  FC                 	db	252
  1277  007BD7  02                 	db	2
  1278  007BD8  01                 	db	1
  1279  007BD9  01                 	db	1
  1280  007BDA  01                 	db	1
  1281  007BDB  01                 	db	1
  1282  007BDC  01                 	db	1
  1283  007BDD  01                 	db	1
  1284  007BDE  01                 	db	1
  1285  007BDF  FD                 	db	253
  1286  007BE0  7D                 	db	125
  1287  007BE1  7D                 	db	125
  1288  007BE2  7D                 	db	125
  1289  007BE3  7D                 	db	125
  1290  007BE4  7D                 	db	125
  1291  007BE5  7D                 	db	125
  1292  007BE6  7D                 	db	125
  1293  007BE7  FD                 	db	253
  1294  007BE8  01                 	db	1
  1295  007BE9  01                 	db	1
  1296  007BEA  01                 	db	1
  1297  007BEB  01                 	db	1
  1298  007BEC  01                 	db	1
  1299  007BED  01                 	db	1
  1300  007BEE  01                 	db	1
  1301  007BEF  02                 	db	2
  1302  007BF0  FC                 	db	252
  1303  007BF1  00                 	db	0
  1304  007BF2  00                 	db	0
  1305  007BF3  00                 	db	0
  1306  007BF4  00                 	db	0
  1307  007BF5  00                 	db	0
  1308  007BF6  00                 	db	0
  1309  007BF7  00                 	db	0
  1310  007BF8  00                 	db	0
  1311  007BF9  00                 	db	0
  1312  007BFA  00                 	db	0
  1313  007BFB  00                 	db	0
  1314  007BFC  00                 	db	0
  1315  007BFD  00                 	db	0
  1316  007BFE  00                 	db	0
  1317  007BFF  00                 	db	0
  1318  007C00  00                 	db	0
  1319  007C01  00                 	db	0
  1320  007C02  00                 	db	0
  1321  007C03  00                 	db	0
  1322  007C04  00                 	db	0
  1323  007C05  00                 	db	0
  1324  007C06  00                 	db	0
  1325  007C07  00                 	db	0
  1326  007C08  00                 	db	0
  1327  007C09  00                 	db	0
  1328  007C0A  00                 	db	0
  1329  007C0B  00                 	db	0
  1330  007C0C  00                 	db	0
  1331  007C0D  00                 	db	0
  1332  007C0E  00                 	db	0
  1333  007C0F  00                 	db	0
  1334  007C10  00                 	db	0
  1335  007C11  00                 	db	0
  1336  007C12  00                 	db	0
  1337  007C13  00                 	db	0
  1338  007C14  00                 	db	0
  1339  007C15  00                 	db	0
  1340  007C16  00                 	db	0
  1341  007C17  00                 	db	0
  1342  007C18  00                 	db	0
  1343  007C19  00                 	db	0
  1344  007C1A  00                 	db	0
  1345  007C1B  00                 	db	0
  1346  007C1C  00                 	db	0
  1347  007C1D  00                 	db	0
  1348  007C1E  00                 	db	0
  1349  007C1F  00                 	db	0
  1350  007C20  00                 	db	0
  1351  007C21  00                 	db	0
  1352  007C22  00                 	db	0
  1353  007C23  00                 	db	0
  1354  007C24  00                 	db	0
  1355  007C25  00                 	db	0
  1356  007C26  00                 	db	0
  1357  007C27                     __end_of_patc:
  1358                           	opt stack 0
  1359  007C27                     _patb:
  1360                           	opt stack 0
  1361  007C27  3F                 	db	63
  1362  007C28  40                 	db	64
  1363  007C29  9F                 	db	159
  1364  007C2A  9F                 	db	159
  1365  007C2B  90                 	db	144
  1366  007C2C  9F                 	db	159
  1367  007C2D  9F                 	db	159
  1368  007C2E  90                 	db	144
  1369  007C2F  9F                 	db	159
  1370  007C30  9F                 	db	159
  1371  007C31  80                 	db	128
  1372  007C32  8D                 	db	141
  1373  007C33  95                 	db	149
  1374  007C34  95                 	db	149
  1375  007C35  95                 	db	149
  1376  007C36  8E                 	db	142
  1377  007C37  80                 	db	128
  1378  007C38  BF                 	db	191
  1379  007C39  9F                 	db	159
  1380  007C3A  88                 	db	136
  1381  007C3B  84                 	db	132
  1382  007C3C  88                 	db	136
  1383  007C3D  9F                 	db	159
  1384  007C3E  BF                 	db	191
  1385  007C3F  80                 	db	128
  1386  007C40  40                 	db	64
  1387  007C41  3F                 	db	63
  1388  007C42  FC                 	db	252
  1389  007C43  02                 	db	2
  1390  007C44  01                 	db	1
  1391  007C45  01                 	db	1
  1392  007C46  01                 	db	1
  1393  007C47  01                 	db	1
  1394  007C48  51                 	db	81
  1395  007C49  7D                 	db	125
  1396  007C4A  3D                 	db	61
  1397  007C4B  01                 	db	1
  1398  007C4C  51                 	db	81
  1399  007C4D  7D                 	db	125
  1400  007C4E  3D                 	db	61
  1401  007C4F  01                 	db	1
  1402  007C50  39                 	db	57
  1403  007C51  7D                 	db	125
  1404  007C52  45                 	db	69
  1405  007C53  7D                 	db	125
  1406  007C54  39                 	db	57
  1407  007C55  01                 	db	1
  1408  007C56  01                 	db	1
  1409  007C57  01                 	db	1
  1410  007C58  01                 	db	1
  1411  007C59  01                 	db	1
  1412  007C5A  01                 	db	1
  1413  007C5B  02                 	db	2
  1414  007C5C  FC                 	db	252
  1415  007C5D  00                 	db	0
  1416  007C5E  00                 	db	0
  1417  007C5F  00                 	db	0
  1418  007C60  00                 	db	0
  1419  007C61  00                 	db	0
  1420  007C62  00                 	db	0
  1421  007C63  00                 	db	0
  1422  007C64  00                 	db	0
  1423  007C65  00                 	db	0
  1424  007C66  00                 	db	0
  1425  007C67  00                 	db	0
  1426  007C68  00                 	db	0
  1427  007C69  00                 	db	0
  1428  007C6A  00                 	db	0
  1429  007C6B  00                 	db	0
  1430  007C6C  00                 	db	0
  1431  007C6D  00                 	db	0
  1432  007C6E  00                 	db	0
  1433  007C6F  00                 	db	0
  1434  007C70  00                 	db	0
  1435  007C71  00                 	db	0
  1436  007C72  00                 	db	0
  1437  007C73  00                 	db	0
  1438  007C74  00                 	db	0
  1439  007C75  00                 	db	0
  1440  007C76  00                 	db	0
  1441  007C77  00                 	db	0
  1442  007C78  00                 	db	0
  1443  007C79  00                 	db	0
  1444  007C7A  00                 	db	0
  1445  007C7B  00                 	db	0
  1446  007C7C  00                 	db	0
  1447  007C7D  00                 	db	0
  1448  007C7E  00                 	db	0
  1449  007C7F  00                 	db	0
  1450  007C80  00                 	db	0
  1451  007C81  00                 	db	0
  1452  007C82  00                 	db	0
  1453  007C83  00                 	db	0
  1454  007C84  00                 	db	0
  1455  007C85  00                 	db	0
  1456  007C86  00                 	db	0
  1457  007C87  00                 	db	0
  1458  007C88  00                 	db	0
  1459  007C89  00                 	db	0
  1460  007C8A  00                 	db	0
  1461  007C8B  00                 	db	0
  1462  007C8C  00                 	db	0
  1463  007C8D  00                 	db	0
  1464  007C8E  00                 	db	0
  1465  007C8F  00                 	db	0
  1466  007C90  00                 	db	0
  1467  007C91  00                 	db	0
  1468  007C92  00                 	db	0
  1469  007C93                     __end_of_patb:
  1470                           	opt stack 0
  1471  007C93                     _pata:
  1472                           	opt stack 0
  1473  007C93  3F                 	db	63
  1474  007C94  40                 	db	64
  1475  007C95  80                 	db	128
  1476  007C96  80                 	db	128
  1477  007C97  80                 	db	128
  1478  007C98  80                 	db	128
  1479  007C99  80                 	db	128
  1480  007C9A  80                 	db	128
  1481  007C9B  80                 	db	128
  1482  007C9C  80                 	db	128
  1483  007C9D  98                 	db	152
  1484  007C9E  B8                 	db	184
  1485  007C9F  B0                 	db	176
  1486  007CA0  B0                 	db	176
  1487  007CA1  B0                 	db	176
  1488  007CA2  B0                 	db	176
  1489  007CA3  B8                 	db	184
  1490  007CA4  9C                 	db	156
  1491  007CA5  8F                 	db	143
  1492  007CA6  83                 	db	131
  1493  007CA7  80                 	db	128
  1494  007CA8  80                 	db	128
  1495  007CA9  80                 	db	128
  1496  007CAA  80                 	db	128
  1497  007CAB  80                 	db	128
  1498  007CAC  40                 	db	64
  1499  007CAD  3F                 	db	63
  1500  007CAE  FC                 	db	252
  1501  007CAF  02                 	db	2
  1502  007CB0  01                 	db	1
  1503  007CB1  01                 	db	1
  1504  007CB2  01                 	db	1
  1505  007CB3  01                 	db	1
  1506  007CB4  01                 	db	1
  1507  007CB5  01                 	db	1
  1508  007CB6  01                 	db	1
  1509  007CB7  01                 	db	1
  1510  007CB8  31                 	db	49
  1511  007CB9  39                 	db	57
  1512  007CBA  19                 	db	25
  1513  007CBB  19                 	db	25
  1514  007CBC  19                 	db	25
  1515  007CBD  19                 	db	25
  1516  007CBE  39                 	db	57
  1517  007CBF  71                 	db	113
  1518  007CC0  E1                 	db	225
  1519  007CC1  81                 	db	129
  1520  007CC2  01                 	db	1
  1521  007CC3  01                 	db	1
  1522  007CC4  01                 	db	1
  1523  007CC5  01                 	db	1
  1524  007CC6  01                 	db	1
  1525  007CC7  02                 	db	2
  1526  007CC8  FC                 	db	252
  1527  007CC9  3F                 	db	63
  1528  007CCA  40                 	db	64
  1529  007CCB  80                 	db	128
  1530  007CCC  83                 	db	131
  1531  007CCD  8F                 	db	143
  1532  007CCE  BF                 	db	191
  1533  007CCF  8F                 	db	143
  1534  007CD0  83                 	db	131
  1535  007CD1  80                 	db	128
  1536  007CD2  80                 	db	128
  1537  007CD3  80                 	db	128
  1538  007CD4  83                 	db	131
  1539  007CD5  8F                 	db	143
  1540  007CD6  BF                 	db	191
  1541  007CD7  8F                 	db	143
  1542  007CD8  83                 	db	131
  1543  007CD9  80                 	db	128
  1544  007CDA  80                 	db	128
  1545  007CDB  80                 	db	128
  1546  007CDC  83                 	db	131
  1547  007CDD  8F                 	db	143
  1548  007CDE  BF                 	db	191
  1549  007CDF  8F                 	db	143
  1550  007CE0  83                 	db	131
  1551  007CE1  80                 	db	128
  1552  007CE2  40                 	db	64
  1553  007CE3  3F                 	db	63
  1554  007CE4  FC                 	db	252
  1555  007CE5  02                 	db	2
  1556  007CE6  F1                 	db	241
  1557  007CE7  F9                 	db	249
  1558  007CE8  FD                 	db	253
  1559  007CE9  FD                 	db	253
  1560  007CEA  FD                 	db	253
  1561  007CEB  F9                 	db	249
  1562  007CEC  F1                 	db	241
  1563  007CED  01                 	db	1
  1564  007CEE  F1                 	db	241
  1565  007CEF  F9                 	db	249
  1566  007CF0  FD                 	db	253
  1567  007CF1  FD                 	db	253
  1568  007CF2  FD                 	db	253
  1569  007CF3  F9                 	db	249
  1570  007CF4  F1                 	db	241
  1571  007CF5  01                 	db	1
  1572  007CF6  F1                 	db	241
  1573  007CF7  F9                 	db	249
  1574  007CF8  FD                 	db	253
  1575  007CF9  FD                 	db	253
  1576  007CFA  FD                 	db	253
  1577  007CFB  F9                 	db	249
  1578  007CFC  F1                 	db	241
  1579  007CFD  02                 	db	2
  1580  007CFE  FC                 	db	252
  1581  007CFF                     __end_of_pata:
  1582                           	opt stack 0
  1583  007CFF  00                 	db	0	; dummy byte at the end
  1584  0000                     
  1585                           	psect	nvCOMRAM
  1586  00006A                     __pnvCOMRAM:
  1587                           	opt stack 0
  1588  00006A                     _bv:
  1589                           	opt stack 0
  1590  00006A                     	ds	2
  1591  0000                     _PORTB	set	3969
  1592  0000                     _DDRDbits	set	3989
  1593  0000                     _DDRAbits	set	3986
  1594  0000                     _DDRBbits	set	3987
  1595  0000                     _DDRCbits	set	3988
  1596  0000                     _PORTC	set	3970
  1597  0000                     _LATDbits	set	3980
  1598  0000                     _LATCbits	set	3979
  1599  0000                     _TRISAbits	set	3986
  1600  0000                     _TRISCbits	set	3988
  1601  0000                     _PORTEbits	set	3972
  1602  0000                     _PORTCbits	set	3970
  1603  0000                     _PORTAbits	set	3968
  1604  0000                     _PORTDbits	set	3971
  1605  0000                     _PORTBbits	set	3969
  1606  0000                     _TRISDbits	set	3989
  1607  0000                     _TRISBbits	set	3987
  1608  0000                     _LATEbits	set	3981
  1609  0000                     _TRISEbits	set	3990
  1610  0000                     _ADRESL	set	4035
  1611  0000                     _ADCON0bits	set	4034
  1612  0000                     _ADRESH	set	4036
  1613  0000                     _ADCON0	set	4034
  1614  0000                     _TMR0	set	4054
  1615  0000                     _T08BIT	set	32430
  1616  0000                     _T0PS0	set	32424
  1617  0000                     _T0PS1	set	32425
  1618  0000                     _T0PS2	set	32426
  1619  0000                     _PSA	set	32427
  1620  0000                     _T0CS	set	32429
  1621  0000                     _INTCONbits	set	4082
  1622  0000                     _INTCON3bits	set	4080
  1623  0000                     _INTCON2bits	set	4081
  1624  0000                     _GIE	set	32663
  1625  0000                     _T0IE	set	32661
  1626  0000                     _T0IF	set	32658
  1627                           
  1628                           ; #config settings
  1629  0000                     
  1630                           	psect	cinit
  1631  0001AA                     __pcinit:
  1632                           	opt stack 0
  1633  0001AA                     start_initialization:
  1634                           	opt stack 0
  1635  0001AA                     __initialization:
  1636                           	opt stack 0
  1637                           
  1638                           ; Initialize objects allocated to COMRAM (1 bytes)
  1639                           ; load TBLPTR registers with __pidataCOMRAM
  1640  0001AA  0E44               	movlw	low __pidataCOMRAM
  1641  0001AC  6EF6               	movwf	tblptrl,c
  1642  0001AE  0E03               	movlw	high __pidataCOMRAM
  1643  0001B0  6EF7               	movwf	tblptrh,c
  1644  0001B2  0E00               	movlw	low (__pidataCOMRAM shr (0+16))
  1645  0001B4  6EF8               	movwf	tblptru,c
  1646  0001B6  0009               	tblrd		*+	;fetch initializer
  1647  0001B8  CFF5 F06C          	movff	tablat,__pdataCOMRAM
  1648                           
  1649                           ; Clear objects allocated to BANK2 (256 bytes)
  1650  0001BC  EE02  F000         	lfsr	0,__pbssBANK2
  1651  0001C0  EE11 F000          	lfsr	1,256
  1652  0001C4                     clear_0:
  1653  0001C4  6AEE               	clrf	postinc0,c
  1654  0001C6  50E5               	movf	postdec1,w,c
  1655  0001C8  50E1               	movf	fsr1l,w,c
  1656  0001CA  E1FC               	bnz	clear_0
  1657  0001CC  50E2               	movf	fsr1h,w,c
  1658  0001CE  E1FA               	bnz	clear_0
  1659                           
  1660                           ; Clear objects allocated to BANK1 (256 bytes)
  1661  0001D0  EE01  F000         	lfsr	0,__pbssBANK1
  1662  0001D4  EE11 F000          	lfsr	1,256
  1663  0001D8                     clear_1:
  1664  0001D8  6AEE               	clrf	postinc0,c
  1665  0001DA  50E5               	movf	postdec1,w,c
  1666  0001DC  50E1               	movf	fsr1l,w,c
  1667  0001DE  E1FC               	bnz	clear_1
  1668  0001E0  50E2               	movf	fsr1h,w,c
  1669  0001E2  E1FA               	bnz	clear_1
  1670                           
  1671                           ; Clear objects allocated to COMRAM (84 bytes)
  1672  0001E4  EE00  F001         	lfsr	0,__pbssCOMRAM
  1673  0001E8  0E54               	movlw	84
  1674  0001EA                     clear_2:
  1675  0001EA  6AEE               	clrf	postinc0,c
  1676  0001EC  06E8               	decf	wreg,f,c
  1677  0001EE  E1FD               	bnz	clear_2
  1678  0001F0                     end_of_initialization:
  1679                           	opt stack 0
  1680  0001F0                     __end_of__initialization:
  1681                           	opt stack 0
  1682  0001F0  906D               	bcf	int$flags,0,c	;clear compiler interrupt flag (level 1)
  1683  0001F2  926D               	bcf	int$flags,1,c	;clear compiler interrupt flag (level 2)
  1684  0001F4  0E00               	movlw	low (__Lmediumconst shr (0+16))
  1685  0001F6  6EF8               	movwf	tblptru,c
  1686  0001F8  0100               	movlb	0
  1687  0001FA  EF9F  F000         	goto	_main	;jump to C main() function
  1688                           tblptru	equ	0xFF8
  1689                           tblptrh	equ	0xFF7
  1690                           tblptrl	equ	0xFF6
  1691                           tablat	equ	0xFF5
  1692                           postinc0	equ	0xFEE
  1693                           wreg	equ	0xFE8
  1694                           postdec1	equ	0xFE5
  1695                           fsr1h	equ	0xFE2
  1696                           fsr1l	equ	0xFE1
  1697                           
  1698                           	psect	bssCOMRAM
  1699  000001                     __pbssCOMRAM:
  1700                           	opt stack 0
  1701  000001                     _StartInjectKey:
  1702                           	opt stack 0
  1703  000001                     	ds	6
  1704  000007                     _ConfirmKey:
  1705                           	opt stack 0
  1706  000007                     	ds	6
  1707  00000D                     _DownKey:
  1708                           	opt stack 0
  1709  00000D                     	ds	6
  1710  000013                     _UpKey:
  1711                           	opt stack 0
  1712  000013                     	ds	6
  1713  000019                     _OnOffKey:
  1714                           	opt stack 0
  1715  000019                     	ds	6
  1716  00001F                     _mbcnt:
  1717                           	opt stack 0
  1718  00001F                     	ds	2
  1719  000021                     _InjectionStepMotorStepPulseMaxNum:
  1720                           	opt stack 0
  1721  000021                     	ds	2
  1722  000023                     _InjectionStepMotorStepPulseNum:
  1723                           	opt stack 0
  1724  000023                     	ds	2
  1725  000025                     _ContinueWorkTimeCount:
  1726                           	opt stack 0
  1727  000025                     	ds	2
  1728  000027                     _ContinueWorkTimePeriod:
  1729                           	opt stack 0
  1730  000027                     	ds	2
  1731  000029                     _InjectAmountNeedPulseNum:
  1732                           	opt stack 0
  1733  000029                     	ds	2
  1734  00002B                     _InjectDepthNeedPulseNum:
  1735                           	opt stack 0
  1736  00002B                     	ds	2
  1737  00002D                     _NeedleInitPosition:
  1738                           	opt stack 0
  1739  00002D                     	ds	2
  1740  00002F                     _NeedleMotorAimPosition:
  1741                           	opt stack 0
  1742  00002F                     	ds	2
  1743  000031                     _NeedleMotorCurrentPosition:
  1744                           	opt stack 0
  1745  000031                     	ds	2
  1746  000033                     _InjectionMotorAimPosition:
  1747                           	opt stack 0
  1748  000033                     	ds	2
  1749  000035                     _InjectionMotorCurrentPosition:
  1750                           	opt stack 0
  1751  000035                     	ds	2
  1752  000037                     _xtt:
  1753                           	opt stack 0
  1754  000037                     	ds	2
  1755  000039                     _NeedleMotorCurrent:
  1756                           	opt stack 0
  1757  000039                     	ds	2
  1758  00003B                     _InjectionMotorCurrent:
  1759                           	opt stack 0
  1760  00003B                     	ds	2
  1761  00003D                     _ann:
  1762                           	opt stack 0
  1763  00003D                     	ds	2
  1764  00003F                     _xn:
  1765                           	opt stack 0
  1766  00003F                     	ds	2
  1767  000041                     _flag:
  1768                           	opt stack 0
  1769  000041                     	ds	1
  1770  000042                     _LastInjectionFeedback:
  1771                           	opt stack 0
  1772  000042                     	ds	1
  1773  000043                     _LastNeedleFeedback:
  1774                           	opt stack 0
  1775  000043                     	ds	1
  1776  000044                     _ContinueWorkState:
  1777                           	opt stack 0
  1778  000044                     	ds	1
  1779  000045                     _NeedleRunDir:
  1780                           	opt stack 0
  1781  000045                     	ds	1
  1782  000046                     _NeedleMotorFindZeroPosFlag:
  1783                           	opt stack 0
  1784  000046                     	ds	1
  1785  000047                     _page:
  1786                           	opt stack 0
  1787  000047                     	ds	1
  1788  000048                     _rcnt:
  1789                           	opt stack 0
  1790  000048                     	ds	1
  1791  000049                     _css:
  1792                           	opt stack 0
  1793  000049                     	ds	1
  1794  00004A                     _ss:
  1795                           	opt stack 0
  1796  00004A                     	ds	1
  1797  00004B                     _cur_edge:
  1798                           	opt stack 0
  1799  00004B                     	ds	1
  1800  00004C                     _prev_edge:
  1801                           	opt stack 0
  1802  00004C                     	ds	1
  1803  00004D                     	ds	1
  1804  00004E                     _KeyScanPeriod:
  1805                           	opt stack 0
  1806  00004E                     	ds	1
  1807  00004F                     _StartWorkFlag:
  1808                           	opt stack 0
  1809  00004F                     	ds	1
  1810  000050                     _CurrentWorkPara:
  1811                           	opt stack 0
  1812  000050                     	ds	5
  1813                           tblptru	equ	0xFF8
  1814                           tblptrh	equ	0xFF7
  1815                           tblptrl	equ	0xFF6
  1816                           tablat	equ	0xFF5
  1817                           postinc0	equ	0xFEE
  1818                           wreg	equ	0xFE8
  1819                           postdec1	equ	0xFE5
  1820                           fsr1h	equ	0xFE2
  1821                           fsr1l	equ	0xFE1
  1822                           
  1823                           	psect	dataCOMRAM
  1824  00006C                     __pdataCOMRAM:
  1825                           	opt stack 0
  1826  00006C                     _ms:
  1827                           	opt stack 0
  1828  00006C                     	ds	1
  1829                           tblptru	equ	0xFF8
  1830                           tblptrh	equ	0xFF7
  1831                           tblptrl	equ	0xFF6
  1832                           tablat	equ	0xFF5
  1833                           postinc0	equ	0xFEE
  1834                           wreg	equ	0xFE8
  1835                           postdec1	equ	0xFE5
  1836                           fsr1h	equ	0xFE2
  1837                           fsr1l	equ	0xFE1
  1838                           
  1839                           	psect	bssBANK1
  1840  000100                     __pbssBANK1:
  1841                           	opt stack 0
  1842  000100                     _write_buf:
  1843                           	opt stack 0
  1844  000100                     	ds	256
  1845                           tblptru	equ	0xFF8
  1846                           tblptrh	equ	0xFF7
  1847                           tblptrl	equ	0xFF6
  1848                           tablat	equ	0xFF5
  1849                           postinc0	equ	0xFEE
  1850                           wreg	equ	0xFE8
  1851                           postdec1	equ	0xFE5
  1852                           fsr1h	equ	0xFE2
  1853                           fsr1l	equ	0xFE1
  1854                           
  1855                           	psect	bssBANK2
  1856  000200                     __pbssBANK2:
  1857                           	opt stack 0
  1858  000200                     _read_buf:
  1859                           	opt stack 0
  1860  000200                     	ds	256
  1861                           tblptru	equ	0xFF8
  1862                           tblptrh	equ	0xFF7
  1863                           tblptrl	equ	0xFF6
  1864                           tablat	equ	0xFF5
  1865                           postinc0	equ	0xFEE
  1866                           wreg	equ	0xFE8
  1867                           postdec1	equ	0xFE5
  1868                           fsr1h	equ	0xFE2
  1869                           fsr1l	equ	0xFE1
  1870                           
  1871                           	psect	cstackBANK0
  1872  000080                     __pcstackBANK0:
  1873                           	opt stack 0
  1874  000080                     ?_get_AD_vaule:
  1875                           	opt stack 0
  1876  000080                     buzz@i:
  1877                           	opt stack 0
  1878  000080                     delay@x:
  1879                           	opt stack 0
  1880                           
  1881                           ; 2 bytes @ 0x0
  1882  000080                     	ds	2
  1883  000082                     ??_get_AD_vaule:
  1884  000082                     buzz@j:
  1885                           	opt stack 0
  1886  000082                     delay@i:
  1887                           	opt stack 0
  1888                           
  1889                           ; 2 bytes @ 0x2
  1890  000082                     	ds	2
  1891  000084                     delay@j:
  1892                           	opt stack 0
  1893                           
  1894                           ; 2 bytes @ 0x4
  1895  000084                     	ds	1
  1896  000085                     get_AD_vaule@ts:
  1897                           	opt stack 0
  1898                           
  1899                           ; 1 bytes @ 0x5
  1900  000085                     	ds	1
  1901  000086                     get_AD_vaule@rv:
  1902                           	opt stack 0
  1903                           
  1904                           ; 2 bytes @ 0x6
  1905  000086                     	ds	2
  1906  000088                     get_AD_vaule@hv:
  1907                           	opt stack 0
  1908                           
  1909                           ; 1 bytes @ 0x8
  1910  000088                     	ds	1
  1911  000089                     get_AD_vaule@lv:
  1912                           	opt stack 0
  1913                           
  1914                           ; 1 bytes @ 0x9
  1915  000089                     	ds	1
  1916  00008A                     tblptru	equ	0xFF8
  1917                           tblptrh	equ	0xFF7
  1918                           tblptrl	equ	0xFF6
  1919                           tablat	equ	0xFF5
  1920                           postinc0	equ	0xFEE
  1921                           wreg	equ	0xFE8
  1922                           postdec1	equ	0xFE5
  1923                           fsr1h	equ	0xFE2
  1924                           fsr1l	equ	0xFE1
  1925                           
  1926                           ; 1 bytes @ 0xA
  1927                           
  1928                           	psect	cstackCOMRAM
  1929  000055                     __pcstackCOMRAM:
  1930                           	opt stack 0
  1931  000055                     i2delay@x:
  1932                           	opt stack 0
  1933                           
  1934                           ; 2 bytes @ 0x0
  1935  000055                     	ds	2
  1936  000057                     i2delay@i:
  1937                           	opt stack 0
  1938                           
  1939                           ; 2 bytes @ 0x2
  1940  000057                     	ds	2
  1941  000059                     i2delay@j:
  1942                           	opt stack 0
  1943                           
  1944                           ; 2 bytes @ 0x4
  1945  000059                     	ds	2
  1946  00005B                     ??_ISR:
  1947  00005B                     
  1948                           ; 1 bytes @ 0x6
  1949  00005B                     	ds	14
  1950  000069                     ISR@temp:
  1951                           	opt stack 0
  1952                           
  1953                           ; 1 bytes @ 0x14
  1954  000069                     	ds	1
  1955                           tblptru	equ	0xFF8
  1956                           tblptrh	equ	0xFF7
  1957                           tblptrl	equ	0xFF6
  1958                           tablat	equ	0xFF5
  1959                           postinc0	equ	0xFEE
  1960                           wreg	equ	0xFE8
  1961                           postdec1	equ	0xFE5
  1962                           fsr1h	equ	0xFE2
  1963                           fsr1l	equ	0xFE1
  1964                           
  1965 ;;
  1966 ;;Main: autosize = 0, tempsize = 0, incstack = 0, save=0
  1967 ;;
  1968 ;; *************** function _main *****************
  1969 ;; Defined at:
  1970 ;;		line 67 in file "../Main.c"
  1971 ;; Parameters:    Size  Location     Type
  1972 ;;		None
  1973 ;; Auto vars:     Size  Location     Type
  1974 ;;		None
  1975 ;; Return value:  Size  Location     Type
  1976 ;;                  1    wreg      void 
  1977 ;; Registers used:
  1978 ;;		wreg, status,2, status,0, cstack
  1979 ;; Tracked objects:
  1980 ;;		On entry : 0/0
  1981 ;;		On exit  : 0/0
  1982 ;;		Unchanged: 0/0
  1983 ;; Data sizes:     COMRAM   BANK0   BANK1   BANK2   BANK3   BANK4   BANK5
  1984 ;;      Params:         0       0       0       0       0       0       0
  1985 ;;      Locals:         0       0       0       0       0       0       0
  1986 ;;      Temps:          0       0       0       0       0       0       0
  1987 ;;      Totals:         0       0       0       0       0       0       0
  1988 ;;Total ram usage:        0 bytes
  1989 ;; Hardware stack levels required when called:    5
  1990 ;; This function calls:
  1991 ;;		_AD_ch0_init
  1992 ;;		_BeepInit
  1993 ;;		_KEY_Init
  1994 ;;		_LCD_Blink
  1995 ;;		_LCD_backlight_init
  1996 ;;		_MotorDriveInit
  1997 ;;		_buzz
  1998 ;;		_delay
  1999 ;;		_get_AD_vaule
  2000 ;; This function is called by:
  2001 ;;		Startup code after reset
  2002 ;; This function uses a non-reentrant model
  2003 ;;
  2004                           
  2005                           	psect	text0
  2006  00013E                     __ptext0:
  2007                           	opt stack 0
  2008  00013E                     _main:
  2009                           	opt stack 26
  2010                           
  2011                           ;Main.c: 70: BeepInit();
  2012                           
  2013                           ;incstack = 0
  2014  00013E  EC9F  F001         	call	_BeepInit	;wreg free
  2015                           
  2016                           ;Main.c: 75: LCD_backlight_init();
  2017  000142  EC9C  F001         	call	_LCD_backlight_init	;wreg free
  2018                           
  2019                           ;Main.c: 84: MotorDriveInit();
  2020  000146  EC67  F001         	call	_MotorDriveInit	;wreg free
  2021                           
  2022                           ;Main.c: 86: KEY_Init();
  2023  00014A  EC8E  F001         	call	_KEY_Init	;wreg free
  2024                           
  2025                           ;Main.c: 89: AD_ch0_init();
  2026  00014E  EC95  F001         	call	_AD_ch0_init	;wreg free
  2027                           
  2028                           ;Main.c: 90: bv = get_AD_vaule();
  2029  000152  EC63  F000         	call	_get_AD_vaule	;wreg free
  2030  000156  C080  F06A         	movff	?_get_AD_vaule,_bv
  2031  00015A  C081  F06B         	movff	?_get_AD_vaule+1,_bv+1
  2032                           
  2033                           ;Main.c: 93: bv =0;
  2034  00015E  0E00               	movlw	0
  2035  000160  6E6B               	movwf	_bv+1,c
  2036  000162  0E00               	movlw	0
  2037  000164  6E6A               	movwf	_bv,c
  2038                           
  2039                           ;Main.c: 94: bv = get_AD_vaule();
  2040  000166  EC63  F000         	call	_get_AD_vaule	;wreg free
  2041  00016A  C080  F06A         	movff	?_get_AD_vaule,_bv
  2042  00016E  C081  F06B         	movff	?_get_AD_vaule+1,_bv+1
  2043                           
  2044                           ;Main.c: 97: bv =0;
  2045  000172  0E00               	movlw	0
  2046  000174  6E6B               	movwf	_bv+1,c
  2047  000176  0E00               	movlw	0
  2048  000178  6E6A               	movwf	_bv,c
  2049                           
  2050                           ;Main.c: 98: bv = get_AD_vaule();
  2051  00017A  EC63  F000         	call	_get_AD_vaule	;wreg free
  2052  00017E  C080  F06A         	movff	?_get_AD_vaule,_bv
  2053  000182  C081  F06B         	movff	?_get_AD_vaule+1,_bv+1
  2054  000186                     l2963:
  2055                           
  2056                           ;Main.c: 120: {
  2057                           ;Main.c: 123: if(PORTDbits.RD6 == 0)
  2058  000186  AC83               	btfss	3971,6,c	;volatile
  2059                           
  2060                           ;Main.c: 124: {
  2061                           ;Main.c: 126: LCD_Blink();
  2062  000188  EC7B  F001         	call	_LCD_Blink	;wreg free
  2063                           
  2064                           ;Main.c: 127: }
  2065                           ;Main.c: 128: if(PORTDbits.RD7 == 0)
  2066  00018C  5083               	movf	3971,w,c	;volatile
  2067                           
  2068                           ;Main.c: 131: }
  2069                           ;Main.c: 132: if(PORTBbits.RB3 == 0)
  2070                           
  2071                           ;Main.c: 129: {
  2072  00018E  5081               	movf	3969,w,c	;volatile
  2073                           
  2074                           ;Main.c: 135: }
  2075                           ;Main.c: 136: if(PORTBbits.RB4 == 0)
  2076                           
  2077                           ;Main.c: 133: {
  2078  000190  B881               	btfsc	3969,4,c	;volatile
  2079  000192  D7F9               	goto	l2963
  2080                           
  2081                           ;Main.c: 144: {
  2082                           ;Main.c: 149: {
  2083                           ;Main.c: 150: buzz();
  2084  000194  ECFF  F000         	call	_buzz	;wreg free
  2085  000198  D7F6               	goto	l2963
  2086  00019A                     l2971:
  2087                           
  2088                           ;Main.c: 276: {
  2089                           ;Main.c: 281: delay(100);
  2090  00019A  0E00               	movlw	0
  2091  00019C  0100               	movlb	0	; () banked
  2092  00019E  6F81               	movwf	(delay@x+1)& (0+255),b
  2093  0001A0  0E64               	movlw	100
  2094  0001A2  6F80               	movwf	delay@x& (0+255),b
  2095  0001A4  EC27  F001         	call	_delay	;wreg free
  2096  0001A8  D7F8               	goto	l2971
  2097  0001AA                     __end_of_main:
  2098                           	opt stack 0
  2099                           tblptru	equ	0xFF8
  2100                           tblptrh	equ	0xFF7
  2101                           tblptrl	equ	0xFF6
  2102                           tablat	equ	0xFF5
  2103                           postinc0	equ	0xFEE
  2104                           wreg	equ	0xFE8
  2105                           postdec1	equ	0xFE5
  2106                           fsr1h	equ	0xFE2
  2107                           fsr1l	equ	0xFE1
  2108                           
  2109 ;; *************** function _get_AD_vaule *****************
  2110 ;; Defined at:
  2111 ;;		line 241 in file "../Oled.c"
  2112 ;; Parameters:    Size  Location     Type
  2113 ;;		None
  2114 ;; Auto vars:     Size  Location     Type
  2115 ;;  rv              2    6[BANK0 ] unsigned int 
  2116 ;;  lv              1    9[BANK0 ] unsigned char 
  2117 ;;  hv              1    8[BANK0 ] unsigned char 
  2118 ;;  ts              1    5[BANK0 ] unsigned char 
  2119 ;; Return value:  Size  Location     Type
  2120 ;;                  2    0[BANK0 ] unsigned int 
  2121 ;; Registers used:
  2122 ;;		wreg, status,2, status,0
  2123 ;; Tracked objects:
  2124 ;;		On entry : 0/0
  2125 ;;		On exit  : 0/0
  2126 ;;		Unchanged: 0/0
  2127 ;; Data sizes:     COMRAM   BANK0   BANK1   BANK2   BANK3   BANK4   BANK5
  2128 ;;      Params:         0       2       0       0       0       0       0
  2129 ;;      Locals:         0       5       0       0       0       0       0
  2130 ;;      Temps:          0       3       0       0       0       0       0
  2131 ;;      Totals:         0      10       0       0       0       0       0
  2132 ;;Total ram usage:       10 bytes
  2133 ;; Hardware stack levels used:    1
  2134 ;; Hardware stack levels required when called:    3
  2135 ;; This function calls:
  2136 ;;		Nothing
  2137 ;; This function is called by:
  2138 ;;		_main
  2139 ;; This function uses a non-reentrant model
  2140 ;;
  2141                           
  2142                           	psect	text1
  2143  0000C6                     __ptext1:
  2144                           	opt stack 0
  2145  0000C6                     _get_AD_vaule:
  2146                           	opt stack 27
  2147                           
  2148                           ;Oled.c: 244: uint8_t hv=0;
  2149                           
  2150                           ;incstack = 0
  2151  0000C6  0E00               	movlw	0
  2152  0000C8  0100               	movlb	0	; () banked
  2153  0000CA  6F88               	movwf	get_AD_vaule@hv& (0+255),b
  2154                           
  2155                           ;Oled.c: 245: uint8_t lv=0;
  2156  0000CC  0E00               	movlw	0
  2157  0000CE  0100               	movlb	0	; () banked
  2158  0000D0  6F89               	movwf	get_AD_vaule@lv& (0+255),b
  2159                           
  2160                           ;Oled.c: 246: uint8_t ts=0;
  2161  0000D2  0E00               	movlw	0
  2162  0000D4  0100               	movlb	0	; () banked
  2163  0000D6  6F85               	movwf	get_AD_vaule@ts& (0+255),b
  2164                           
  2165                           ;Oled.c: 247: uint16_t rv=0;
  2166  0000D8  0E00               	movlw	0
  2167  0000DA  0100               	movlb	0	; () banked
  2168  0000DC  6F87               	movwf	(get_AD_vaule@rv+1)& (0+255),b
  2169  0000DE  0E00               	movlw	0
  2170  0000E0  6F86               	movwf	get_AD_vaule@rv& (0+255),b
  2171                           
  2172                           ; BSR set to: 0
  2173                           ;Oled.c: 248: ADCON0bits.GO =1;
  2174  0000E2  82C2               	bsf	4034,1,c	;volatile
  2175  0000E4                     l299:
  2176  0000E4  B2C2               	btfsc	4034,1,c	;volatile
  2177  0000E6  D7FE               	goto	l299
  2178                           
  2179                           ;Oled.c: 252: hv = ADRESH;
  2180  0000E8  CFC4 F088          	movff	4036,get_AD_vaule@hv	;volatile
  2181                           
  2182                           ;Oled.c: 253: lv = ADRESL;
  2183  0000EC  CFC3 F089          	movff	4035,get_AD_vaule@lv	;volatile
  2184                           
  2185                           ;Oled.c: 255: rv = ((uint16_t)(hv<<8 | lv) >>6)& 0x03ff;
  2186  0000F0  0100               	movlb	0	; () banked
  2187  0000F2  5189               	movf	get_AD_vaule@lv& (0+255),w,b
  2188  0000F4  C088  F082         	movff	get_AD_vaule@hv,??_get_AD_vaule
  2189  0000F8  0100               	movlb	0	; () banked
  2190  0000FA  6B83               	clrf	(??_get_AD_vaule+1)& (0+255),b
  2191  0000FC  C082  F083         	movff	??_get_AD_vaule,??_get_AD_vaule+1
  2192  000100  0100               	movlb	0	; () banked
  2193  000102  6B82               	clrf	??_get_AD_vaule& (0+255),b
  2194  000104  0100               	movlb	0	; () banked
  2195  000106  1382               	iorwf	??_get_AD_vaule& (0+255),f,b
  2196  000108  0E00               	movlw	0
  2197  00010A  1383               	iorwf	(??_get_AD_vaule+1)& (0+255),f,b
  2198  00010C  0E06               	movlw	6
  2199  00010E  0100               	movlb	0	; () banked
  2200  000110  6F84               	movwf	(??_get_AD_vaule+2)& (0+255),b
  2201  000112                     u2295:
  2202  000112  0100               	movlb	0	; () banked
  2203  000114  90D8               	bcf	status,0,c
  2204  000116  3383               	rrcf	(??_get_AD_vaule+1)& (0+255),f,b
  2205  000118  3382               	rrcf	??_get_AD_vaule& (0+255),f,b
  2206  00011A  0100               	movlb	0	; () banked
  2207  00011C  2F84               	decfsz	(??_get_AD_vaule+2)& (0+255),f,b
  2208  00011E  D7F9               	goto	u2295
  2209  000120  0EFF               	movlw	255
  2210  000122  0100               	movlb	0	; () banked
  2211  000124  1582               	andwf	??_get_AD_vaule& (0+255),w,b
  2212  000126  0100               	movlb	0	; () banked
  2213  000128  6F86               	movwf	get_AD_vaule@rv& (0+255),b
  2214  00012A  0E03               	movlw	3
  2215  00012C  0100               	movlb	0	; () banked
  2216  00012E  1583               	andwf	(??_get_AD_vaule+1)& (0+255),w,b
  2217  000130  0100               	movlb	0	; () banked
  2218  000132  6F87               	movwf	(get_AD_vaule@rv+1)& (0+255),b
  2219                           
  2220                           ; BSR set to: 0
  2221                           ;Oled.c: 258: return rv;
  2222  000134  C086  F080         	movff	get_AD_vaule@rv,?_get_AD_vaule
  2223  000138  C087  F081         	movff	get_AD_vaule@rv+1,?_get_AD_vaule+1
  2224  00013C  0012               	return	
  2225  00013E                     __end_of_get_AD_vaule:
  2226                           	opt stack 0
  2227                           tblptru	equ	0xFF8
  2228                           tblptrh	equ	0xFF7
  2229                           tblptrl	equ	0xFF6
  2230                           tablat	equ	0xFF5
  2231                           postinc0	equ	0xFEE
  2232                           wreg	equ	0xFE8
  2233                           postdec1	equ	0xFE5
  2234                           fsr1h	equ	0xFE2
  2235                           fsr1l	equ	0xFE1
  2236                           status	equ	0xFD8
  2237                           
  2238 ;; *************** function _buzz *****************
  2239 ;; Defined at:
  2240 ;;		line 38 in file "../Beep.c"
  2241 ;; Parameters:    Size  Location     Type
  2242 ;;		None
  2243 ;; Auto vars:     Size  Location     Type
  2244 ;;  j               2    2[BANK0 ] unsigned int 
  2245 ;;  i               2    0[BANK0 ] unsigned int 
  2246 ;; Return value:  Size  Location     Type
  2247 ;;                  1    wreg      void 
  2248 ;; Registers used:
  2249 ;;		wreg, status,2, status,0
  2250 ;; Tracked objects:
  2251 ;;		On entry : 0/0
  2252 ;;		On exit  : 0/0
  2253 ;;		Unchanged: 0/0
  2254 ;; Data sizes:     COMRAM   BANK0   BANK1   BANK2   BANK3   BANK4   BANK5
  2255 ;;      Params:         0       0       0       0       0       0       0
  2256 ;;      Locals:         0       4       0       0       0       0       0
  2257 ;;      Temps:          0       0       0       0       0       0       0
  2258 ;;      Totals:         0       4       0       0       0       0       0
  2259 ;;Total ram usage:        4 bytes
  2260 ;; Hardware stack levels used:    1
  2261 ;; Hardware stack levels required when called:    3
  2262 ;; This function calls:
  2263 ;;		Nothing
  2264 ;; This function is called by:
  2265 ;;		_main
  2266 ;; This function uses a non-reentrant model
  2267 ;;
  2268                           
  2269                           	psect	text2
  2270  0001FE                     __ptext2:
  2271                           	opt stack 0
  2272  0001FE                     _buzz:
  2273                           	opt stack 27
  2274                           
  2275                           ;Beep.c: 42: unsigned int i,j;
  2276                           ;Beep.c: 44: LATEbits.LE2 =1;
  2277                           
  2278                           ; BSR set to: 0
  2279                           ;incstack = 0
  2280  0001FE  848D               	bsf	3981,2,c	;volatile
  2281                           
  2282                           ;Beep.c: 46: for(i=0;i<200;i++)
  2283  000200  0E00               	movlw	0
  2284  000202  0100               	movlb	0	; () banked
  2285  000204  6F81               	movwf	(buzz@i+1)& (0+255),b
  2286  000206  0E00               	movlw	0
  2287  000208  6F80               	movwf	buzz@i& (0+255),b
  2288                           
  2289                           ; BSR set to: 0
  2290  00020A  0100               	movlb	0	; () banked
  2291  00020C  5181               	movf	(buzz@i+1)& (0+255),w,b
  2292  00020E  E11D               	bnz	l17
  2293  000210  0EC8               	movlw	200
  2294  000212  0100               	movlb	0	; () banked
  2295  000214  5D80               	subwf	buzz@i& (0+255),w,b
  2296  000216  B0D8               	btfsc	status,0,c
  2297  000218  D018               	goto	l17
  2298                           
  2299                           ; BSR set to: 0
  2300                           ;Beep.c: 47: for(j=0;j<100;j++);
  2301                           
  2302                           ; BSR set to: 0
  2303                           
  2304                           ; BSR set to: 0
  2305  00021A  0E00               	movlw	0
  2306  00021C  0100               	movlb	0	; () banked
  2307  00021E  6F83               	movwf	(buzz@j+1)& (0+255),b
  2308  000220  0E00               	movlw	0
  2309  000222  6F82               	movwf	buzz@j& (0+255),b
  2310  000224                     l2915:
  2311                           
  2312                           ; BSR set to: 0
  2313  000224  0100               	movlb	0	; () banked
  2314  000226  5183               	movf	(buzz@j+1)& (0+255),w,b
  2315  000228  E109               	bnz	l2923
  2316  00022A  0E64               	movlw	100
  2317  00022C  0100               	movlb	0	; () banked
  2318  00022E  5D82               	subwf	buzz@j& (0+255),w,b
  2319  000230  B0D8               	btfsc	status,0,c
  2320  000232  D004               	goto	l2923
  2321                           
  2322                           ; BSR set to: 0
  2323                           
  2324                           ; BSR set to: 0
  2325                           
  2326                           ; BSR set to: 0
  2327  000234  0100               	movlb	0	; () banked
  2328  000236  4B82               	infsnz	buzz@j& (0+255),f,b
  2329  000238  2B83               	incf	(buzz@j+1)& (0+255),f,b
  2330  00023A  D7F4               	goto	l2915
  2331  00023C                     l2923:
  2332                           
  2333                           ; BSR set to: 0
  2334  00023C  0100               	movlb	0	; () banked
  2335  00023E  4B80               	infsnz	buzz@i& (0+255),f,b
  2336  000240  2B81               	incf	(buzz@i+1)& (0+255),f,b
  2337                           
  2338                           ; BSR set to: 0
  2339  000242  0100               	movlb	0	; () banked
  2340  000244  5181               	movf	(buzz@i+1)& (0+255),w,b
  2341  000246  E101               	bnz	u2270
  2342  000248  D7E3               	goto	L1
  2343  00024A                     u2270:
  2344  00024A                     l17:
  2345                           
  2346                           ; BSR set to: 0
  2347                           ;Beep.c: 49: LATEbits.LE2 =0;
  2348  00024A  948D               	bcf	3981,2,c	;volatile
  2349                           
  2350                           ; BSR set to: 0
  2351  00024C  0012               	return		;funcret
  2352  00024E                     __end_of_buzz:
  2353                           	opt stack 0
  2354                           tblptru	equ	0xFF8
  2355                           tblptrh	equ	0xFF7
  2356                           tblptrl	equ	0xFF6
  2357                           tablat	equ	0xFF5
  2358                           postinc0	equ	0xFEE
  2359                           wreg	equ	0xFE8
  2360                           postdec1	equ	0xFE5
  2361                           fsr1h	equ	0xFE2
  2362                           fsr1l	equ	0xFE1
  2363                           status	equ	0xFD8
  2364                           
  2365 ;; *************** function _MotorDriveInit *****************
  2366 ;; Defined at:
  2367 ;;		line 111 in file "../MotorDrive.c"
  2368 ;; Parameters:    Size  Location     Type
  2369 ;;		None
  2370 ;; Auto vars:     Size  Location     Type
  2371 ;;		None
  2372 ;; Return value:  Size  Location     Type
  2373 ;;                  1    wreg      void 
  2374 ;; Registers used:
  2375 ;;		None
  2376 ;; Tracked objects:
  2377 ;;		On entry : 0/0
  2378 ;;		On exit  : 0/0
  2379 ;;		Unchanged: 0/0
  2380 ;; Data sizes:     COMRAM   BANK0   BANK1   BANK2   BANK3   BANK4   BANK5
  2381 ;;      Params:         0       0       0       0       0       0       0
  2382 ;;      Locals:         0       0       0       0       0       0       0
  2383 ;;      Temps:          0       0       0       0       0       0       0
  2384 ;;      Totals:         0       0       0       0       0       0       0
  2385 ;;Total ram usage:        0 bytes
  2386 ;; Hardware stack levels used:    1
  2387 ;; Hardware stack levels required when called:    3
  2388 ;; This function calls:
  2389 ;;		Nothing
  2390 ;; This function is called by:
  2391 ;;		_main
  2392 ;; This function uses a non-reentrant model
  2393 ;;
  2394                           
  2395                           	psect	text3
  2396  0002CE                     __ptext3:
  2397                           	opt stack 0
  2398  0002CE                     _MotorDriveInit:
  2399                           	opt stack 27
  2400                           
  2401                           ;MotorDrive.c: 115: TRISCbits.RC2 =0;
  2402                           
  2403                           ; BSR set to: 0
  2404                           ;incstack = 0
  2405  0002CE  9494               	bcf	3988,2,c	;volatile
  2406                           
  2407                           ;MotorDrive.c: 116: TRISDbits.RD0 =0;
  2408  0002D0  9095               	bcf	3989,0,c	;volatile
  2409                           
  2410                           ;MotorDrive.c: 117: TRISDbits.RD1 =0;
  2411  0002D2  9295               	bcf	3989,1,c	;volatile
  2412                           
  2413                           ;MotorDrive.c: 119: TRISCbits.RC1 =1;
  2414  0002D4  8294               	bsf	3988,1,c	;volatile
  2415                           
  2416                           ;MotorDrive.c: 120: TRISAbits.RA4 =1;
  2417  0002D6  8892               	bsf	3986,4,c	;volatile
  2418                           
  2419                           ;MotorDrive.c: 123: TRISCbits.RC0 =1;
  2420  0002D8  8094               	bsf	3988,0,c	;volatile
  2421                           
  2422                           ;MotorDrive.c: 124: TRISBbits.RB2 =1;
  2423  0002DA  8493               	bsf	3987,2,c	;volatile
  2424                           
  2425                           ;MotorDrive.c: 128: TRISDbits.RD4 =0;
  2426  0002DC  9895               	bcf	3989,4,c	;volatile
  2427                           
  2428                           ;MotorDrive.c: 129: TRISDbits.RD2 =0;
  2429  0002DE  9495               	bcf	3989,2,c	;volatile
  2430                           
  2431                           ;MotorDrive.c: 130: TRISDbits.RD3 =0;
  2432  0002E0  9695               	bcf	3989,3,c	;volatile
  2433                           
  2434                           ;MotorDrive.c: 133: LATCbits.LC2 =0;
  2435  0002E2  948B               	bcf	3979,2,c	;volatile
  2436                           
  2437                           ;MotorDrive.c: 134: LATDbits.LD0 =0;
  2438  0002E4  908C               	bcf	3980,0,c	;volatile
  2439                           
  2440                           ;MotorDrive.c: 135: LATDbits.LD1 =0;
  2441  0002E6  928C               	bcf	3980,1,c	;volatile
  2442                           
  2443                           ;MotorDrive.c: 137: LATDbits.LD4 =0;
  2444  0002E8  988C               	bcf	3980,4,c	;volatile
  2445                           
  2446                           ;MotorDrive.c: 138: LATDbits.LD2 =0;
  2447  0002EA  948C               	bcf	3980,2,c	;volatile
  2448                           
  2449                           ;MotorDrive.c: 139: LATDbits.LD3 =0;
  2450  0002EC  968C               	bcf	3980,3,c	;volatile
  2451                           
  2452                           ;MotorDrive.c: 142: INTCON2bits.INTEDG2 = 0;
  2453  0002EE  98F1               	bcf	intcon2,4,c	;volatile
  2454                           
  2455                           ;MotorDrive.c: 143: INTCON3bits.INT2IF =0;
  2456  0002F0  92F0               	bcf	intcon3,1,c	;volatile
  2457                           
  2458                           ;MotorDrive.c: 144: INTCON3bits.INT2E = 1;
  2459  0002F2  88F0               	bsf	intcon3,4,c	;volatile
  2460  0002F4  0012               	return		;funcret
  2461  0002F6                     __end_of_MotorDriveInit:
  2462                           	opt stack 0
  2463                           tblptru	equ	0xFF8
  2464                           tblptrh	equ	0xFF7
  2465                           tblptrl	equ	0xFF6
  2466                           tablat	equ	0xFF5
  2467                           intcon2	equ	0xFF1
  2468                           intcon3	equ	0xFF0
  2469                           postinc0	equ	0xFEE
  2470                           wreg	equ	0xFE8
  2471                           postdec1	equ	0xFE5
  2472                           fsr1h	equ	0xFE2
  2473                           fsr1l	equ	0xFE1
  2474                           status	equ	0xFD8
  2475                           
  2476 ;; *************** function _LCD_backlight_init *****************
  2477 ;; Defined at:
  2478 ;;		line 510 in file "../Oled.c"
  2479 ;; Parameters:    Size  Location     Type
  2480 ;;		None
  2481 ;; Auto vars:     Size  Location     Type
  2482 ;;		None
  2483 ;; Return value:  Size  Location     Type
  2484 ;;                  1    wreg      void 
  2485 ;; Registers used:
  2486 ;;		None
  2487 ;; Tracked objects:
  2488 ;;		On entry : 0/0
  2489 ;;		On exit  : 0/0
  2490 ;;		Unchanged: 0/0
  2491 ;; Data sizes:     COMRAM   BANK0   BANK1   BANK2   BANK3   BANK4   BANK5
  2492 ;;      Params:         0       0       0       0       0       0       0
  2493 ;;      Locals:         0       0       0       0       0       0       0
  2494 ;;      Temps:          0       0       0       0       0       0       0
  2495 ;;      Totals:         0       0       0       0       0       0       0
  2496 ;;Total ram usage:        0 bytes
  2497 ;; Hardware stack levels used:    1
  2498 ;; Hardware stack levels required when called:    3
  2499 ;; This function calls:
  2500 ;;		Nothing
  2501 ;; This function is called by:
  2502 ;;		_main
  2503 ;; This function uses a non-reentrant model
  2504 ;;
  2505                           
  2506                           	psect	text4
  2507  000338                     __ptext4:
  2508                           	opt stack 0
  2509  000338                     _LCD_backlight_init:
  2510                           	opt stack 27
  2511                           
  2512                           ;Oled.c: 517: TRISEbits.RE0 =0;
  2513                           
  2514                           ;incstack = 0
  2515  000338  9096               	bcf	3990,0,c	;volatile
  2516                           
  2517                           ;Oled.c: 518: LATEbits.LE0 =0;
  2518  00033A  908D               	bcf	3981,0,c	;volatile
  2519  00033C  0012               	return		;funcret
  2520  00033E                     __end_of_LCD_backlight_init:
  2521                           	opt stack 0
  2522                           tblptru	equ	0xFF8
  2523                           tblptrh	equ	0xFF7
  2524                           tblptrl	equ	0xFF6
  2525                           tablat	equ	0xFF5
  2526                           intcon2	equ	0xFF1
  2527                           intcon3	equ	0xFF0
  2528                           postinc0	equ	0xFEE
  2529                           wreg	equ	0xFE8
  2530                           postdec1	equ	0xFE5
  2531                           fsr1h	equ	0xFE2
  2532                           fsr1l	equ	0xFE1
  2533                           status	equ	0xFD8
  2534                           
  2535 ;; *************** function _LCD_Blink *****************
  2536 ;; Defined at:
  2537 ;;		line 542 in file "../Oled.c"
  2538 ;; Parameters:    Size  Location     Type
  2539 ;;		None
  2540 ;; Auto vars:     Size  Location     Type
  2541 ;;		None
  2542 ;; Return value:  Size  Location     Type
  2543 ;;                  1    wreg      void 
  2544 ;; Registers used:
  2545 ;;		wreg, status,2, status,0, cstack
  2546 ;; Tracked objects:
  2547 ;;		On entry : 0/0
  2548 ;;		On exit  : 0/0
  2549 ;;		Unchanged: 0/0
  2550 ;; Data sizes:     COMRAM   BANK0   BANK1   BANK2   BANK3   BANK4   BANK5
  2551 ;;      Params:         0       0       0       0       0       0       0
  2552 ;;      Locals:         0       0       0       0       0       0       0
  2553 ;;      Temps:          0       0       0       0       0       0       0
  2554 ;;      Totals:         0       0       0       0       0       0       0
  2555 ;;Total ram usage:        0 bytes
  2556 ;; Hardware stack levels used:    1
  2557 ;; Hardware stack levels required when called:    4
  2558 ;; This function calls:
  2559 ;;		_delay
  2560 ;; This function is called by:
  2561 ;;		_main
  2562 ;; This function uses a non-reentrant model
  2563 ;;
  2564                           
  2565                           	psect	text5
  2566  0002F6                     __ptext5:
  2567                           	opt stack 0
  2568  0002F6                     _LCD_Blink:
  2569                           	opt stack 26
  2570                           
  2571                           ;Oled.c: 547: LATEbits.LE0 =1;
  2572                           
  2573                           ;incstack = 0
  2574  0002F6  808D               	bsf	3981,0,c	;volatile
  2575                           
  2576                           ;Oled.c: 548: delay(50);
  2577  0002F8  0E00               	movlw	0
  2578  0002FA  0100               	movlb	0	; () banked
  2579  0002FC  6F81               	movwf	(delay@x+1)& (0+255),b
  2580  0002FE  0E32               	movlw	50
  2581  000300  6F80               	movwf	delay@x& (0+255),b
  2582  000302  EC27  F001         	call	_delay	;wreg free
  2583                           
  2584                           ;Oled.c: 549: LATEbits.LE0 =0;
  2585  000306  908D               	bcf	3981,0,c	;volatile
  2586  000308  0012               	return		;funcret
  2587  00030A                     __end_of_LCD_Blink:
  2588                           	opt stack 0
  2589                           tblptru	equ	0xFF8
  2590                           tblptrh	equ	0xFF7
  2591                           tblptrl	equ	0xFF6
  2592                           tablat	equ	0xFF5
  2593                           intcon2	equ	0xFF1
  2594                           intcon3	equ	0xFF0
  2595                           postinc0	equ	0xFEE
  2596                           wreg	equ	0xFE8
  2597                           postdec1	equ	0xFE5
  2598                           fsr1h	equ	0xFE2
  2599                           fsr1l	equ	0xFE1
  2600                           status	equ	0xFD8
  2601                           
  2602 ;; *************** function _delay *****************
  2603 ;; Defined at:
  2604 ;;		line 7 in file "../Oled.c"
  2605 ;; Parameters:    Size  Location     Type
  2606 ;;  x               2    0[BANK0 ] unsigned int 
  2607 ;; Auto vars:     Size  Location     Type
  2608 ;;  j               2    4[BANK0 ] unsigned int 
  2609 ;;  i               2    2[BANK0 ] unsigned int 
  2610 ;; Return value:  Size  Location     Type
  2611 ;;                  1    wreg      void 
  2612 ;; Registers used:
  2613 ;;		wreg, status,2, status,0
  2614 ;; Tracked objects:
  2615 ;;		On entry : 0/0
  2616 ;;		On exit  : 0/0
  2617 ;;		Unchanged: 0/0
  2618 ;; Data sizes:     COMRAM   BANK0   BANK1   BANK2   BANK3   BANK4   BANK5
  2619 ;;      Params:         0       2       0       0       0       0       0
  2620 ;;      Locals:         0       4       0       0       0       0       0
  2621 ;;      Temps:          0       0       0       0       0       0       0
  2622 ;;      Totals:         0       6       0       0       0       0       0
  2623 ;;Total ram usage:        6 bytes
  2624 ;; Hardware stack levels used:    1
  2625 ;; Hardware stack levels required when called:    3
  2626 ;; This function calls:
  2627 ;;		Nothing
  2628 ;; This function is called by:
  2629 ;;		_main
  2630 ;;		_LCD_Blink
  2631 ;;		_Initial_LY096BG30
  2632 ;; This function uses a non-reentrant model
  2633 ;;
  2634                           
  2635                           	psect	text6
  2636  00024E                     __ptext6:
  2637                           	opt stack 0
  2638  00024E                     _delay:
  2639                           	opt stack 27
  2640                           
  2641                           ;Oled.c: 9: unsigned int i,j;
  2642                           ;Oled.c: 10: for(i=0;i<x;i++)
  2643                           
  2644                           ;incstack = 0
  2645  00024E  0E00               	movlw	0
  2646  000250  0100               	movlb	0	; () banked
  2647  000252  6F83               	movwf	(delay@i+1)& (0+255),b
  2648  000254  0E00               	movlw	0
  2649  000256  6F82               	movwf	delay@i& (0+255),b
  2650  000258  D014               	goto	l2901
  2651  00025A                     l2889:
  2652                           
  2653                           ; BSR set to: 0
  2654                           ;Oled.c: 11: for(j=0;j<10000;j++);
  2655  00025A  0E00               	movlw	0
  2656  00025C  0100               	movlb	0	; () banked
  2657  00025E  6F85               	movwf	(delay@j+1)& (0+255),b
  2658  000260  0E00               	movlw	0
  2659  000262  6F84               	movwf	delay@j& (0+255),b
  2660  000264                     l2891:
  2661                           
  2662                           ; BSR set to: 0
  2663  000264  0E10               	movlw	16
  2664  000266  0100               	movlb	0	; () banked
  2665  000268  5D84               	subwf	delay@j& (0+255),w,b
  2666  00026A  0E27               	movlw	39
  2667  00026C  0100               	movlb	0	; () banked
  2668  00026E  5985               	subwfb	(delay@j+1)& (0+255),w,b
  2669  000270  B0D8               	btfsc	status,0,c
  2670  000272  D004               	goto	l2899
  2671                           
  2672                           ; BSR set to: 0
  2673                           
  2674                           ; BSR set to: 0
  2675                           
  2676                           ; BSR set to: 0
  2677  000274  0100               	movlb	0	; () banked
  2678  000276  4B84               	infsnz	delay@j& (0+255),f,b
  2679  000278  2B85               	incf	(delay@j+1)& (0+255),f,b
  2680  00027A  D7F4               	goto	l2891
  2681  00027C                     l2899:
  2682                           
  2683                           ; BSR set to: 0
  2684  00027C  0100               	movlb	0	; () banked
  2685  00027E  4B82               	infsnz	delay@i& (0+255),f,b
  2686  000280  2B83               	incf	(delay@i+1)& (0+255),f,b
  2687  000282                     l2901:
  2688                           
  2689                           ; BSR set to: 0
  2690  000282  0100               	movlb	0	; () banked
  2691  000284  5180               	movf	delay@x& (0+255),w,b
  2692  000286  0100               	movlb	0	; () banked
  2693  000288  5D82               	subwf	delay@i& (0+255),w,b
  2694  00028A  0100               	movlb	0	; () banked
  2695  00028C  5181               	movf	(delay@x+1)& (0+255),w,b
  2696  00028E  0100               	movlb	0	; () banked
  2697  000290  5983               	subwfb	(delay@i+1)& (0+255),w,b
  2698  000292  B0D8               	btfsc	status,0,c
  2699  000294  0012               	return	
  2700  000296  D7E1               	goto	l2889
  2701  000298                     __end_of_delay:
  2702                           	opt stack 0
  2703                           tblptru	equ	0xFF8
  2704                           tblptrh	equ	0xFF7
  2705                           tblptrl	equ	0xFF6
  2706                           tablat	equ	0xFF5
  2707                           intcon2	equ	0xFF1
  2708                           intcon3	equ	0xFF0
  2709                           postinc0	equ	0xFEE
  2710                           wreg	equ	0xFE8
  2711                           postdec1	equ	0xFE5
  2712                           fsr1h	equ	0xFE2
  2713                           fsr1l	equ	0xFE1
  2714                           status	equ	0xFD8
  2715                           
  2716 ;; *************** function _KEY_Init *****************
  2717 ;; Defined at:
  2718 ;;		line 12 in file "../Key.c"
  2719 ;; Parameters:    Size  Location     Type
  2720 ;;		None
  2721 ;; Auto vars:     Size  Location     Type
  2722 ;;		None
  2723 ;; Return value:  Size  Location     Type
  2724 ;;                  1    wreg      void 
  2725 ;; Registers used:
  2726 ;;		None
  2727 ;; Tracked objects:
  2728 ;;		On entry : 0/0
  2729 ;;		On exit  : 0/0
  2730 ;;		Unchanged: 0/0
  2731 ;; Data sizes:     COMRAM   BANK0   BANK1   BANK2   BANK3   BANK4   BANK5
  2732 ;;      Params:         0       0       0       0       0       0       0
  2733 ;;      Locals:         0       0       0       0       0       0       0
  2734 ;;      Temps:          0       0       0       0       0       0       0
  2735 ;;      Totals:         0       0       0       0       0       0       0
  2736 ;;Total ram usage:        0 bytes
  2737 ;; Hardware stack levels used:    1
  2738 ;; Hardware stack levels required when called:    3
  2739 ;; This function calls:
  2740 ;;		Nothing
  2741 ;; This function is called by:
  2742 ;;		_main
  2743 ;; This function uses a non-reentrant model
  2744 ;;
  2745                           
  2746                           	psect	text7
  2747  00031C                     __ptext7:
  2748                           	opt stack 0
  2749  00031C                     _KEY_Init:
  2750                           	opt stack 27
  2751                           
  2752                           ;Key.c: 24: TRISBbits.RB3 =1;
  2753                           
  2754                           ; BSR set to: 0
  2755                           ;incstack = 0
  2756  00031C  8693               	bsf	3987,3,c	;volatile
  2757                           
  2758                           ;Key.c: 25: TRISBbits.RB4 =1;
  2759  00031E  8893               	bsf	3987,4,c	;volatile
  2760                           
  2761                           ;Key.c: 29: TRISBbits.RB5 =1;
  2762  000320  8A93               	bsf	3987,5,c	;volatile
  2763                           
  2764                           ;Key.c: 31: TRISDbits.RD6 =1;
  2765  000322  8C95               	bsf	3989,6,c	;volatile
  2766                           
  2767                           ;Key.c: 32: TRISDbits.RD7 =1;
  2768  000324  8E95               	bsf	3989,7,c	;volatile
  2769                           
  2770                           ;Key.c: 34: TRISBbits.RB0 =1;
  2771  000326  8093               	bsf	3987,0,c	;volatile
  2772  000328  0012               	return		;funcret
  2773  00032A                     __end_of_KEY_Init:
  2774                           	opt stack 0
  2775                           tblptru	equ	0xFF8
  2776                           tblptrh	equ	0xFF7
  2777                           tblptrl	equ	0xFF6
  2778                           tablat	equ	0xFF5
  2779                           intcon2	equ	0xFF1
  2780                           intcon3	equ	0xFF0
  2781                           postinc0	equ	0xFEE
  2782                           wreg	equ	0xFE8
  2783                           postdec1	equ	0xFE5
  2784                           fsr1h	equ	0xFE2
  2785                           fsr1l	equ	0xFE1
  2786                           status	equ	0xFD8
  2787                           
  2788 ;; *************** function _BeepInit *****************
  2789 ;; Defined at:
  2790 ;;		line 5 in file "../Beep.c"
  2791 ;; Parameters:    Size  Location     Type
  2792 ;;		None
  2793 ;; Auto vars:     Size  Location     Type
  2794 ;;		None
  2795 ;; Return value:  Size  Location     Type
  2796 ;;                  1    wreg      void 
  2797 ;; Registers used:
  2798 ;;		None
  2799 ;; Tracked objects:
  2800 ;;		On entry : 0/0
  2801 ;;		On exit  : 0/0
  2802 ;;		Unchanged: 0/0
  2803 ;; Data sizes:     COMRAM   BANK0   BANK1   BANK2   BANK3   BANK4   BANK5
  2804 ;;      Params:         0       0       0       0       0       0       0
  2805 ;;      Locals:         0       0       0       0       0       0       0
  2806 ;;      Temps:          0       0       0       0       0       0       0
  2807 ;;      Totals:         0       0       0       0       0       0       0
  2808 ;;Total ram usage:        0 bytes
  2809 ;; Hardware stack levels used:    1
  2810 ;; Hardware stack levels required when called:    3
  2811 ;; This function calls:
  2812 ;;		Nothing
  2813 ;; This function is called by:
  2814 ;;		_main
  2815 ;; This function uses a non-reentrant model
  2816 ;;
  2817                           
  2818                           	psect	text8
  2819  00033E                     __ptext8:
  2820                           	opt stack 0
  2821  00033E                     _BeepInit:
  2822                           	opt stack 27
  2823                           
  2824                           ;Beep.c: 14: TRISEbits.RE2 =0;
  2825                           
  2826                           ;incstack = 0
  2827  00033E  9496               	bcf	3990,2,c	;volatile
  2828                           
  2829                           ;Beep.c: 15: LATEbits.LE2 =0;
  2830  000340  948D               	bcf	3981,2,c	;volatile
  2831  000342  0012               	return		;funcret
  2832  000344                     __end_of_BeepInit:
  2833                           	opt stack 0
  2834                           tblptru	equ	0xFF8
  2835                           tblptrh	equ	0xFF7
  2836                           tblptrl	equ	0xFF6
  2837                           tablat	equ	0xFF5
  2838                           intcon2	equ	0xFF1
  2839                           intcon3	equ	0xFF0
  2840                           postinc0	equ	0xFEE
  2841                           wreg	equ	0xFE8
  2842                           postdec1	equ	0xFE5
  2843                           fsr1h	equ	0xFE2
  2844                           fsr1l	equ	0xFE1
  2845                           status	equ	0xFD8
  2846                           
  2847 ;; *************** function _AD_ch0_init *****************
  2848 ;; Defined at:
  2849 ;;		line 227 in file "../Oled.c"
  2850 ;; Parameters:    Size  Location     Type
  2851 ;;		None
  2852 ;; Auto vars:     Size  Location     Type
  2853 ;;		None
  2854 ;; Return value:  Size  Location     Type
  2855 ;;                  1    wreg      unsigned char 
  2856 ;; Registers used:
  2857 ;;		None
  2858 ;; Tracked objects:
  2859 ;;		On entry : 0/0
  2860 ;;		On exit  : 0/0
  2861 ;;		Unchanged: 0/0
  2862 ;; Data sizes:     COMRAM   BANK0   BANK1   BANK2   BANK3   BANK4   BANK5
  2863 ;;      Params:         0       0       0       0       0       0       0
  2864 ;;      Locals:         0       0       0       0       0       0       0
  2865 ;;      Temps:          0       0       0       0       0       0       0
  2866 ;;      Totals:         0       0       0       0       0       0       0
  2867 ;;Total ram usage:        0 bytes
  2868 ;; Hardware stack levels used:    1
  2869 ;; Hardware stack levels required when called:    3
  2870 ;; This function calls:
  2871 ;;		Nothing
  2872 ;; This function is called by:
  2873 ;;		_main
  2874 ;; This function uses a non-reentrant model
  2875 ;;
  2876                           
  2877                           	psect	text9
  2878  00032A                     __ptext9:
  2879                           	opt stack 0
  2880  00032A                     _AD_ch0_init:
  2881                           	opt stack 27
  2882                           
  2883                           ;Oled.c: 230: TRISAbits.RA0 =1;
  2884                           
  2885                           ;incstack = 0
  2886  00032A  8092               	bsf	3986,0,c	;volatile
  2887                           
  2888                           ;Oled.c: 233: ADCON0bits.CHS = 0;
  2889  00032C  94C2               	bcf	4034,2,c	;volatile
  2890  00032E  96C2               	bcf	4034,3,c	;volatile
  2891  000330  98C2               	bcf	4034,4,c	;volatile
  2892  000332  9AC2               	bcf	4034,5,c	;volatile
  2893                           
  2894                           ;Oled.c: 234: ADCON0bits.ADON = 1;
  2895  000334  80C2               	bsf	4034,0,c	;volatile
  2896                           
  2897                           ;Oled.c: 237: return 1;
  2898                           ;	Return value of _AD_ch0_init is never used
  2899  000336  0012               	return		;funcret
  2900  000338                     __end_of_AD_ch0_init:
  2901                           	opt stack 0
  2902                           tblptru	equ	0xFF8
  2903                           tblptrh	equ	0xFF7
  2904                           tblptrl	equ	0xFF6
  2905                           tablat	equ	0xFF5
  2906                           intcon2	equ	0xFF1
  2907                           intcon3	equ	0xFF0
  2908                           postinc0	equ	0xFEE
  2909                           wreg	equ	0xFE8
  2910                           postdec1	equ	0xFE5
  2911                           fsr1h	equ	0xFE2
  2912                           fsr1l	equ	0xFE1
  2913                           status	equ	0xFD8
  2914                           
  2915 ;; *************** function _ISR *****************
  2916 ;; Defined at:
  2917 ;;		line 20 in file "../Timer.c"
  2918 ;; Parameters:    Size  Location     Type
  2919 ;;		None
  2920 ;; Auto vars:     Size  Location     Type
  2921 ;;  temp            1   20[COMRAM] unsigned char 
  2922 ;; Return value:  Size  Location     Type
  2923 ;;                  1    wreg      void 
  2924 ;; Registers used:
  2925 ;;		wreg, status,2, status,0, cstack
  2926 ;; Tracked objects:
  2927 ;;		On entry : 0/0
  2928 ;;		On exit  : 0/0
  2929 ;;		Unchanged: 0/0
  2930 ;; Data sizes:     COMRAM   BANK0   BANK1   BANK2   BANK3   BANK4   BANK5
  2931 ;;      Params:         0       0       0       0       0       0       0
  2932 ;;      Locals:         1       0       0       0       0       0       0
  2933 ;;      Temps:         14       0       0       0       0       0       0
  2934 ;;      Totals:        15       0       0       0       0       0       0
  2935 ;;Total ram usage:       15 bytes
  2936 ;; Hardware stack levels used:    1
  2937 ;; Hardware stack levels required when called:    2
  2938 ;; This function calls:
  2939 ;;		i2_LCD_Blink
  2940 ;; This function is called by:
  2941 ;;		Interrupt level 2
  2942 ;; This function uses a non-reentrant model
  2943 ;;
  2944                           
  2945                           	psect	intcode
  2946  000008                     __pintcode:
  2947                           	opt stack 0
  2948  000008                     _ISR:
  2949                           	opt stack 26
  2950                           
  2951                           ;incstack = 0
  2952  000008  826D               	bsf	btemp,1,c	;set compiler interrupt flag (level 2)
  2953  00000A  ED09  F000         	call	int_func,f	;refresh shadow registers
  2954                           tblptru	equ	0xFF8
  2955                           tblptrh	equ	0xFF7
  2956                           tblptrl	equ	0xFF6
  2957                           tablat	equ	0xFF5
  2958                           intcon2	equ	0xFF1
  2959                           intcon3	equ	0xFF0
  2960                           postinc0	equ	0xFEE
  2961                           wreg	equ	0xFE8
  2962                           postdec1	equ	0xFE5
  2963                           fsr1h	equ	0xFE2
  2964                           fsr1l	equ	0xFE1
  2965                           status	equ	0xFD8
  2966                           
  2967                           	psect	intcode_body
  2968  000012                     __pintcode_body:
  2969                           	opt stack 26
  2970  000012                     int_func:
  2971                           	opt stack 26
  2972  000012  0006               	pop		; remove dummy address from shadow register refresh
  2973  000014  CFFA F05B          	movff	pclath,??_ISR
  2974  000018  CFFB F05C          	movff	pclatu,??_ISR+1
  2975  00001C  CFE9 F05D          	movff	fsr0l,??_ISR+2
  2976  000020  CFEA F05E          	movff	fsr0h,??_ISR+3
  2977  000024  CFE1 F05F          	movff	fsr1l,??_ISR+4
  2978  000028  CFE2 F060          	movff	fsr1h,??_ISR+5
  2979  00002C  CFD9 F061          	movff	fsr2l,??_ISR+6
  2980  000030  CFDA F062          	movff	fsr2h,??_ISR+7
  2981  000034  CFF3 F063          	movff	prodl,??_ISR+8
  2982  000038  CFF4 F064          	movff	prodh,??_ISR+9
  2983  00003C  CFF6 F065          	movff	tblptrl,??_ISR+10
  2984  000040  CFF7 F066          	movff	tblptrh,??_ISR+11
  2985  000044  CFF8 F067          	movff	tblptru,??_ISR+12
  2986  000048  CFF5 F068          	movff	tablat,??_ISR+13
  2987                           
  2988                           ;Timer.c: 22: uint8_t temp;
  2989                           ;Timer.c: 25: if(INTCONbits.RBIF)
  2990  00004C  A0F2               	btfss	intcon,0,c	;volatile
  2991  00004E  D009               	goto	i2l2873
  2992                           
  2993                           ;Timer.c: 26: {
  2994                           ;Timer.c: 29: if (PORTBbits.RB4 == 0)
  2995  000050  A881               	btfss	3969,4,c	;volatile
  2996                           
  2997                           ;Timer.c: 30: {
  2998                           ;Timer.c: 32: LCD_Blink();
  2999  000052  EC85  F001         	call	i2_LCD_Blink	;wreg free
  3000                           
  3001                           ;Timer.c: 33: }
  3002                           ;Timer.c: 35: if (PORTBbits.RB5 == 0)
  3003  000056  AA81               	btfss	3969,5,c	;volatile
  3004                           
  3005                           ;Timer.c: 36: {
  3006                           ;Timer.c: 39: LCD_Blink();
  3007  000058  EC85  F001         	call	i2_LCD_Blink	;wreg free
  3008                           
  3009                           ;Timer.c: 40: }
  3010                           ;Timer.c: 42: temp = PORTB;
  3011  00005C  CF81 F069          	movff	3969,ISR@temp	;volatile
  3012                           
  3013                           ;Timer.c: 43: INTCONbits.RBIF=0;
  3014  000060  90F2               	bcf	intcon,0,c	;volatile
  3015  000062                     i2l2873:
  3016                           
  3017                           ;Timer.c: 50: }
  3018                           ;Timer.c: 55: if(INTCONbits.INT0IF)
  3019  000062  A2F2               	btfss	intcon,1,c	;volatile
  3020  000064  D003               	goto	i2l2879
  3021                           
  3022                           ;Timer.c: 56: {
  3023                           ;Timer.c: 59: LCD_Blink();
  3024  000066  EC85  F001         	call	i2_LCD_Blink	;wreg free
  3025                           
  3026                           ;Timer.c: 60: INTCONbits.INT0IF = 0;
  3027  00006A  92F2               	bcf	intcon,1,c	;volatile
  3028  00006C                     i2l2879:
  3029                           
  3030                           ;Timer.c: 61: }
  3031                           ;Timer.c: 64: if (INTCON3bits.INT2IF)
  3032  00006C  A2F0               	btfss	intcon3,1,c	;volatile
  3033  00006E  D00D               	goto	i2l580
  3034                           
  3035                           ;Timer.c: 65: {
  3036                           ;Timer.c: 66: INTCONbits.INT0IF = 0;
  3037  000070  92F2               	bcf	intcon,1,c	;volatile
  3038                           
  3039                           ;Timer.c: 69: mbcnt++;
  3040  000072  4A1F               	infsnz	_mbcnt,f,c
  3041  000074  2A20               	incf	_mbcnt+1,f,c
  3042                           
  3043                           ;Timer.c: 71: if(mbcnt == 30000)
  3044  000076  0E30               	movlw	48
  3045  000078  181F               	xorwf	_mbcnt,w,c
  3046  00007A  E107               	bnz	i2l580
  3047  00007C  0E75               	movlw	117
  3048  00007E  1820               	xorwf	_mbcnt+1,w,c
  3049  000080  A4D8               	btfss	status,2,c
  3050  000082  D003               	goto	i2l580
  3051                           
  3052                           ;Timer.c: 72: {
  3053                           ;Timer.c: 74: do{LATDbits.LD2 =0;LATDbits.LD3 =0; }while(0);
  3054  000084  948C               	bcf	3980,2,c	;volatile
  3055  000086  968C               	bcf	3980,3,c	;volatile
  3056                           
  3057                           ;Timer.c: 75: LATDbits.LD4 =0;
  3058  000088  988C               	bcf	3980,4,c	;volatile
  3059  00008A                     i2l580:
  3060  00008A  C068  FFF5         	movff	??_ISR+13,tablat
  3061  00008E  C067  FFF8         	movff	??_ISR+12,tblptru
  3062  000092  C066  FFF7         	movff	??_ISR+11,tblptrh
  3063  000096  C065  FFF6         	movff	??_ISR+10,tblptrl
  3064  00009A  C064  FFF4         	movff	??_ISR+9,prodh
  3065  00009E  C063  FFF3         	movff	??_ISR+8,prodl
  3066  0000A2  C062  FFDA         	movff	??_ISR+7,fsr2h
  3067  0000A6  C061  FFD9         	movff	??_ISR+6,fsr2l
  3068  0000AA  C060  FFE2         	movff	??_ISR+5,fsr1h
  3069  0000AE  C05F  FFE1         	movff	??_ISR+4,fsr1l
  3070  0000B2  C05E  FFEA         	movff	??_ISR+3,fsr0h
  3071  0000B6  C05D  FFE9         	movff	??_ISR+2,fsr0l
  3072  0000BA  C05C  FFFB         	movff	??_ISR+1,pclatu
  3073  0000BE  C05B  FFFA         	movff	??_ISR,pclath
  3074  0000C2  926D               	bcf	btemp,1,c	;clear compiler interrupt flag (level 2)
  3075  0000C4  0011               	retfie		f
  3076  0000C6                     __end_of_ISR:
  3077                           	opt stack 0
  3078                           pclatu	equ	0xFFB
  3079                           pclath	equ	0xFFA
  3080                           tblptru	equ	0xFF8
  3081                           tblptrh	equ	0xFF7
  3082                           tblptrl	equ	0xFF6
  3083                           tablat	equ	0xFF5
  3084                           prodh	equ	0xFF4
  3085                           prodl	equ	0xFF3
  3086                           intcon	equ	0xFF2
  3087                           intcon2	equ	0xFF1
  3088                           intcon3	equ	0xFF0
  3089                           postinc0	equ	0xFEE
  3090                           fsr0h	equ	0xFEA
  3091                           fsr0l	equ	0xFE9
  3092                           wreg	equ	0xFE8
  3093                           postdec1	equ	0xFE5
  3094                           fsr1h	equ	0xFE2
  3095                           fsr1l	equ	0xFE1
  3096                           fsr2h	equ	0xFDA
  3097                           fsr2l	equ	0xFD9
  3098                           status	equ	0xFD8
  3099                           
  3100 ;; *************** function i2_LCD_Blink *****************
  3101 ;; Defined at:
  3102 ;;		line 542 in file "../Oled.c"
  3103 ;; Parameters:    Size  Location     Type
  3104 ;;		None
  3105 ;; Auto vars:     Size  Location     Type
  3106 ;;		None
  3107 ;; Return value:  Size  Location     Type
  3108 ;;                  1    wreg      void 
  3109 ;; Registers used:
  3110 ;;		wreg, status,2, status,0, cstack
  3111 ;; Tracked objects:
  3112 ;;		On entry : 0/0
  3113 ;;		On exit  : 0/0
  3114 ;;		Unchanged: 0/0
  3115 ;; Data sizes:     COMRAM   BANK0   BANK1   BANK2   BANK3   BANK4   BANK5
  3116 ;;      Params:         0       0       0       0       0       0       0
  3117 ;;      Locals:         0       0       0       0       0       0       0
  3118 ;;      Temps:          0       0       0       0       0       0       0
  3119 ;;      Totals:         0       0       0       0       0       0       0
  3120 ;;Total ram usage:        0 bytes
  3121 ;; Hardware stack levels used:    1
  3122 ;; Hardware stack levels required when called:    1
  3123 ;; This function calls:
  3124 ;;		i2_delay
  3125 ;; This function is called by:
  3126 ;;		_ISR
  3127 ;; This function uses a non-reentrant model
  3128 ;;
  3129                           
  3130                           	psect	text11
  3131  00030A                     __ptext11:
  3132                           	opt stack 0
  3133  00030A                     i2_LCD_Blink:
  3134                           	opt stack 26
  3135                           
  3136                           ;Oled.c: 547: LATEbits.LE0 =1;
  3137                           
  3138                           ;incstack = 0
  3139  00030A  808D               	bsf	3981,0,c	;volatile
  3140                           
  3141                           ;Oled.c: 548: delay(50);
  3142  00030C  0E00               	movlw	0
  3143  00030E  6E56               	movwf	i2delay@x+1,c
  3144  000310  0E32               	movlw	50
  3145  000312  6E55               	movwf	i2delay@x,c
  3146  000314  EC4C  F001         	call	i2_delay	;wreg free
  3147                           
  3148                           ;Oled.c: 549: LATEbits.LE0 =0;
  3149  000318  908D               	bcf	3981,0,c	;volatile
  3150  00031A  0012               	return		;funcret
  3151  00031C                     __end_ofi2_LCD_Blink:
  3152                           	opt stack 0
  3153                           pclatu	equ	0xFFB
  3154                           pclath	equ	0xFFA
  3155                           tblptru	equ	0xFF8
  3156                           tblptrh	equ	0xFF7
  3157                           tblptrl	equ	0xFF6
  3158                           tablat	equ	0xFF5
  3159                           prodh	equ	0xFF4
  3160                           prodl	equ	0xFF3
  3161                           intcon	equ	0xFF2
  3162                           intcon2	equ	0xFF1
  3163                           intcon3	equ	0xFF0
  3164                           postinc0	equ	0xFEE
  3165                           fsr0h	equ	0xFEA
  3166                           fsr0l	equ	0xFE9
  3167                           wreg	equ	0xFE8
  3168                           postdec1	equ	0xFE5
  3169                           fsr1h	equ	0xFE2
  3170                           fsr1l	equ	0xFE1
  3171                           fsr2h	equ	0xFDA
  3172                           fsr2l	equ	0xFD9
  3173                           status	equ	0xFD8
  3174                           
  3175 ;; *************** function i2_delay *****************
  3176 ;; Defined at:
  3177 ;;		line 7 in file "../Oled.c"
  3178 ;; Parameters:    Size  Location     Type
  3179 ;;  x               2    0[COMRAM] unsigned int 
  3180 ;; Auto vars:     Size  Location     Type
  3181 ;;  delay           2    4[COMRAM] unsigned int 
  3182 ;;  delay           2    2[COMRAM] unsigned int 
  3183 ;; Return value:  Size  Location     Type
  3184 ;;                  1    wreg      void 
  3185 ;; Registers used:
  3186 ;;		wreg, status,2, status,0
  3187 ;; Tracked objects:
  3188 ;;		On entry : 0/0
  3189 ;;		On exit  : 0/0
  3190 ;;		Unchanged: 0/0
  3191 ;; Data sizes:     COMRAM   BANK0   BANK1   BANK2   BANK3   BANK4   BANK5
  3192 ;;      Params:         2       0       0       0       0       0       0
  3193 ;;      Locals:         4       0       0       0       0       0       0
  3194 ;;      Temps:          0       0       0       0       0       0       0
  3195 ;;      Totals:         6       0       0       0       0       0       0
  3196 ;;Total ram usage:        6 bytes
  3197 ;; Hardware stack levels used:    1
  3198 ;; This function calls:
  3199 ;;		Nothing
  3200 ;; This function is called by:
  3201 ;;		i2_LCD_Blink
  3202 ;; This function uses a non-reentrant model
  3203 ;;
  3204                           
  3205                           	psect	text12
  3206  000298                     __ptext12:
  3207                           	opt stack 0
  3208  000298                     i2_delay:
  3209                           	opt stack 26
  3210                           
  3211                           ;Oled.c: 9: unsigned int i,j;
  3212                           ;Oled.c: 10: for(i=0;i<x;i++)
  3213                           
  3214                           ;incstack = 0
  3215  000298  0E00               	movlw	0
  3216  00029A  6E58               	movwf	i2delay@i+1,c
  3217  00029C  0E00               	movlw	0
  3218  00029E  6E57               	movwf	i2delay@i,c
  3219  0002A0  D00F               	goto	i2l2361
  3220  0002A2                     i2l2349:
  3221                           
  3222                           ;Oled.c: 11: for(j=0;j<10000;j++);
  3223  0002A2  0E00               	movlw	0
  3224  0002A4  6E5A               	movwf	i2delay@j+1,c
  3225  0002A6  0E00               	movlw	0
  3226  0002A8  6E59               	movwf	i2delay@j,c
  3227  0002AA                     i2l2351:
  3228  0002AA  0E10               	movlw	16
  3229  0002AC  5C59               	subwf	i2delay@j,w,c
  3230  0002AE  0E27               	movlw	39
  3231  0002B0  585A               	subwfb	i2delay@j+1,w,c
  3232  0002B2  B0D8               	btfsc	status,0,c
  3233  0002B4  D003               	goto	i2l2359
  3234  0002B6  4A59               	infsnz	i2delay@j,f,c
  3235  0002B8  2A5A               	incf	i2delay@j+1,f,c
  3236  0002BA  D7F7               	goto	i2l2351
  3237  0002BC                     i2l2359:
  3238  0002BC  4A57               	infsnz	i2delay@i,f,c
  3239  0002BE  2A58               	incf	i2delay@i+1,f,c
  3240  0002C0                     i2l2361:
  3241  0002C0  5055               	movf	i2delay@x,w,c
  3242  0002C2  5C57               	subwf	i2delay@i,w,c
  3243  0002C4  5056               	movf	i2delay@x+1,w,c
  3244  0002C6  5858               	subwfb	i2delay@i+1,w,c
  3245  0002C8  B0D8               	btfsc	status,0,c
  3246  0002CA  0012               	return	
  3247  0002CC  D7EA               	goto	i2l2349
  3248  0002CE                     __end_ofi2_delay:
  3249                           	opt stack 0
  3250                           pclatu	equ	0xFFB
  3251                           pclath	equ	0xFFA
  3252                           tblptru	equ	0xFF8
  3253                           tblptrh	equ	0xFF7
  3254                           tblptrl	equ	0xFF6
  3255                           tablat	equ	0xFF5
  3256                           prodh	equ	0xFF4
  3257                           prodl	equ	0xFF3
  3258                           intcon	equ	0xFF2
  3259                           intcon2	equ	0xFF1
  3260                           intcon3	equ	0xFF0
  3261                           postinc0	equ	0xFEE
  3262                           fsr0h	equ	0xFEA
  3263                           fsr0l	equ	0xFE9
  3264                           wreg	equ	0xFE8
  3265                           postdec1	equ	0xFE5
  3266                           fsr1h	equ	0xFE2
  3267                           fsr1l	equ	0xFE1
  3268                           fsr2h	equ	0xFDA
  3269                           fsr2l	equ	0xFD9
  3270                           status	equ	0xFD8
  3271                           pclatu	equ	0xFFB
  3272                           pclath	equ	0xFFA
  3273                           tblptru	equ	0xFF8
  3274                           tblptrh	equ	0xFF7
  3275                           tblptrl	equ	0xFF6
  3276                           tablat	equ	0xFF5
  3277                           prodh	equ	0xFF4
  3278                           prodl	equ	0xFF3
  3279                           intcon	equ	0xFF2
  3280                           intcon2	equ	0xFF1
  3281                           intcon3	equ	0xFF0
  3282                           postinc0	equ	0xFEE
  3283                           fsr0h	equ	0xFEA
  3284                           fsr0l	equ	0xFE9
  3285                           wreg	equ	0xFE8
  3286                           postdec1	equ	0xFE5
  3287                           fsr1h	equ	0xFE2
  3288                           fsr1l	equ	0xFE1
  3289                           fsr2h	equ	0xFDA
  3290                           fsr2l	equ	0xFD9
  3291                           status	equ	0xFD8
  3292                           
  3293                           	psect	rparam
  3294  0000                     pclatu	equ	0xFFB
  3295                           pclath	equ	0xFFA
  3296                           tblptru	equ	0xFF8
  3297                           tblptrh	equ	0xFF7
  3298                           tblptrl	equ	0xFF6
  3299                           tablat	equ	0xFF5
  3300                           prodh	equ	0xFF4
  3301                           prodl	equ	0xFF3
  3302                           intcon	equ	0xFF2
  3303                           intcon2	equ	0xFF1
  3304                           intcon3	equ	0xFF0
  3305                           postinc0	equ	0xFEE
  3306                           fsr0h	equ	0xFEA
  3307                           fsr0l	equ	0xFE9
  3308                           wreg	equ	0xFE8
  3309                           postdec1	equ	0xFE5
  3310                           fsr1h	equ	0xFE2
  3311                           fsr1l	equ	0xFE1
  3312                           fsr2h	equ	0xFDA
  3313                           fsr2l	equ	0xFD9
  3314                           status	equ	0xFD8
  3315                           
  3316                           	psect	temp
  3317  00006D                     btemp:
  3318                           	opt stack 0
  3319  00006D                     	ds	1
  3320  0000                     int$flags	set	btemp
  3321                           pclatu	equ	0xFFB
  3322                           pclath	equ	0xFFA
  3323                           tblptru	equ	0xFF8
  3324                           tblptrh	equ	0xFF7
  3325                           tblptrl	equ	0xFF6
  3326                           tablat	equ	0xFF5
  3327                           prodh	equ	0xFF4
  3328                           prodl	equ	0xFF3
  3329                           intcon	equ	0xFF2
  3330                           intcon2	equ	0xFF1
  3331                           intcon3	equ	0xFF0
  3332                           postinc0	equ	0xFEE
  3333                           fsr0h	equ	0xFEA
  3334                           fsr0l	equ	0xFE9
  3335                           wreg	equ	0xFE8
  3336                           postdec1	equ	0xFE5
  3337                           fsr1h	equ	0xFE2
  3338                           fsr1l	equ	0xFE1
  3339                           fsr2h	equ	0xFDA
  3340                           fsr2l	equ	0xFD9
  3341                           status	equ	0xFD8


Data Sizes:
    Strings     0
    Constant    1476
    Data        1
    BSS         596
    Persistent  2
    Stack       0

Auto Spaces:
    Space          Size  Autos    Used
    COMRAM          126     21     108
    BANK0           128     10      10
    BANK1           256      0     256
    BANK2           256      0     256
    BANK3           256      0       0
    BANK4           256      0       0
    BANK5           239      0       0

Pointer List with Targets:

    None.

Critical Paths under _main in COMRAM

    None.

Critical Paths under _ISR in COMRAM

    i2_LCD_Blink->i2_delay

Critical Paths under _main in BANK0

    _main->_get_AD_vaule
    _LCD_Blink->_delay

Critical Paths under _ISR in BANK0

    None.

Critical Paths under _main in BANK1

    None.

Critical Paths under _ISR in BANK1

    None.

Critical Paths under _main in BANK2

    None.

Critical Paths under _ISR in BANK2

    None.

Critical Paths under _main in BANK3

    None.

Critical Paths under _ISR in BANK3

    None.

Critical Paths under _main in BANK4

    None.

Critical Paths under _ISR in BANK4

    None.

Critical Paths under _main in BANK5

    None.

Critical Paths under _ISR in BANK5

    None.

Call Graph Tables:

 ---------------------------------------------------------------------------------
 (Depth) Function   	        Calls       Base Space   Used Autos Params    Refs
 ---------------------------------------------------------------------------------
 (0) _main                                                 0     0      0    1094
                        _AD_ch0_init
                           _BeepInit
                           _KEY_Init
                          _LCD_Blink
                 _LCD_backlight_init
                     _MotorDriveInit
                               _buzz
                              _delay
                       _get_AD_vaule
 ---------------------------------------------------------------------------------
 (1) _get_AD_vaule                                        10     8      2     114
                                              0 BANK0     10     8      2
 ---------------------------------------------------------------------------------
 (1) _buzz                                                 4     4      0      92
                                              0 BANK0      4     4      0
 ---------------------------------------------------------------------------------
 (1) _MotorDriveInit                                       0     0      0       0
 ---------------------------------------------------------------------------------
 (1) _LCD_backlight_init                                   0     0      0       0
 ---------------------------------------------------------------------------------
 (1) _LCD_Blink                                            0     0      0     444
                              _delay
 ---------------------------------------------------------------------------------
 (1) _delay                                                6     4      2     444
                                              0 BANK0      6     4      2
 ---------------------------------------------------------------------------------
 (1) _KEY_Init                                             0     0      0       0
 ---------------------------------------------------------------------------------
 (1) _BeepInit                                             0     0      0       0
 ---------------------------------------------------------------------------------
 (1) _AD_ch0_init                                          0     0      0       0
 ---------------------------------------------------------------------------------
 Estimated maximum stack depth 1
 ---------------------------------------------------------------------------------
 (Depth) Function   	        Calls       Base Space   Used Autos Params    Refs
 ---------------------------------------------------------------------------------
 (3) _ISR                                                 15    15      0     119
                                              6 COMRAM    15    15      0
                        i2_LCD_Blink
 ---------------------------------------------------------------------------------
 (4) i2_LCD_Blink                                          0     0      0     118
                            i2_delay
 ---------------------------------------------------------------------------------
 (5) i2_delay                                              6     4      2     118
                                              0 COMRAM     6     4      2
 ---------------------------------------------------------------------------------
 Estimated maximum stack depth 5
 ---------------------------------------------------------------------------------

 Call Graph Graphs:

 _main (ROOT)
   _AD_ch0_init
   _BeepInit
   _KEY_Init
   _LCD_Blink
     _delay
   _LCD_backlight_init
   _MotorDriveInit
   _buzz
   _delay
   _get_AD_vaule

 _ISR (ROOT)
   i2_LCD_Blink
     i2_delay

 Address spaces:
Name               Size   Autos  Total    Cost      Usage
BIGRAM             5EE      0       0      16        0.0%
EEDATA             100      0       0       0        0.0%
BITBANK4           100      0       0      11        0.0%
BANK4              100      0       0      12        0.0%
BITBANK3           100      0       0       9        0.0%
BANK3              100      0       0      10        0.0%
BITBANK2           100      0       0       7        0.0%
BANK2              100      0     100       8      100.0%
BITBANK1           100      0       0       5        0.0%
BANK1              100      0     100       6      100.0%
BITBANK5            EF      0       0      15        0.0%
BANK5               EF      0       0      13        0.0%
BITBANK0            80      0       0       3        0.0%
BANK0               80      A       A       4        7.8%
BITCOMRAM           7E      0       0       0        0.0%
COMRAM              7E     15      6C       1       85.7%
BITSFR_5             0      0       0     200        0.0%
SFR_5                0      0       0     200        0.0%
BITSFR_4             0      0       0     200        0.0%
SFR_4                0      0       0     200        0.0%
BITSFR_3             0      0       0     200        0.0%
SFR_3                0      0       0     200        0.0%
BITSFR_2             0      0       0     200        0.0%
SFR_2                0      0       0     200        0.0%
BITSFR_1             0      0       0     200        0.0%
SFR_1                0      0       0     200        0.0%
BITSFR               0      0       0     200        0.0%
SFR                  0      0       0     200        0.0%
STACK                0      0       0       2        0.0%
NULL                 0      0       0       0        0.0%
ABS                  0      0     276      14        0.0%
DATA                 0      0     276      17        0.0%
CODE                 0      0       0       0        0.0%


Microchip Technology PIC18 Macro Assembler V1.41 build -162212810 
Symbol Table                                                                                   Sun Aug 30 00:11:18 2020

       __end_of_LCD_backlight_init 033E                                 l17 024A  
         _InjectAmountNeedPulseNum 0029                                 _bv 006A  
                               _ms 006C                                 _ss 004A  
                               _xn 003F                        __CFG_BORV$0 000000  
                     __CFG_CP0$OFF 000000                       __CFG_CP1$OFF 000000  
                     __CFG_CP2$OFF 000000                       __CFG_CP3$OFF 000000  
                      __CFG_OSC$HS 000000                                l299 00E4  
                              _GIE 007F97                       __CFG_CPB$OFF 000000  
                     __CFG_CPD$OFF 000000                                _ISR 0008  
                              _PSA 007EAB                                _ann 003D  
                              _css 0049                                _xtt 0037  
                              wreg 000FE8                       __CFG_LVP$OFF 000000  
                             ?_ISR 0055                       __CFG_WDT$OFF 000000  
                             l2901 0282                               l2923 023C  
                             l2915 0224                               l2891 0264  
                             l2971 019A                               l2963 0186  
                             l2889 025A                               l2899 027C  
                             _T0IE 007F95                               _T0IF 007F92  
                             _T0CS 007EAD                               u2270 024A  
                             u2295 0112                               _TMR0 000FD6  
                             _flag 0041                               _main 013E  
                             _page 0047                               _pata 7C93  
                             _patb 7C27                               _patc 7BBB  
                             _patd 7A9B                               _pate 797B  
                             _patf 785B                               _buzz 01FE  
                             _patg 773B                               _rcnt 0048  
               __size_of_LCD_Blink 0014                               fsr0h 000FEA  
                             fsr1h 000FE2                               fsr2h 000FDA  
                             fsr0l 000FE9                               fsr1l 000FE1  
                             fsr2l 000FD9                               btemp 006D  
                             prodh 000FF4                               prodl 000FF3  
                  __end_ofi2_delay 02CE                               start 000E  
                    __CFG_IESO$OFF 000000      _InjectionMotorCurrentPosition 0035  
                    __CFG_MCLRE$ON 000000                       ___param_bank 000000  
                            ??_ISR 005B                              ?_main 0055  
                            ?_buzz 0055                              _T0PS0 007EA8  
                            _T0PS1 007EA9                              _T0PS2 007EAA  
                 __end_of_KEY_Init 032A                              i2l580 008A  
                            _PORTB 000F81                              _PORTC 000F82  
                    __CFG_WDTPS$64 000000                      __CFG_PWRT$OFF 000000  
             __end_of_get_AD_vaule 013E                      __CFG_WRT0$OFF 000000  
                    __CFG_WRT1$OFF 000000                      __CFG_WRT2$OFF 000000  
                    __CFG_WRT3$OFF 000000                         _ConfirmKey 0007  
                   __CFG_EBTR0$OFF 000000                     __CFG_FCMEN$OFF 000000  
                   __CFG_EBTR1$OFF 000000                     __CFG_EBTR2$OFF 000000  
                            _UpKey 0013                     __CFG_EBTR3$OFF 000000  
                    __CFG_WRTB$OFF 000000                      __CFG_WRTC$OFF 000000  
                    __CFG_WRTD$OFF 000000                       ?i2_LCD_Blink 0055  
                   __CFG_EBTRB$OFF 000000                              _delay 024E  
                            _mbcnt 001F                              buzz@i 0080  
                            buzz@j 0082                     __CFG_BOREN$OFF 000000  
                            pclath 000FFA                              tablat 000FF5  
                 __end_of_BeepInit 0344                              status 000FD8  
                  __initialization 01AA     _InjectionStepMotorStepPulseNum 0023  
                     __end_of_main 01AA                       __end_of_pata 7CFF  
                     __end_of_patb 7C93                       __end_of_patc 7C27  
                     __end_of_patd 7BBB                       __end_of_pate 7A9B  
                     __end_of_buzz 024E                       __end_of_patf 797B  
                     __end_of_patg 785B                             ??_main 008A  
                           ??_buzz 0080                  __end_of_LCD_Blink 030A  
                    __activetblptr 000002               __size_of_AD_ch0_init 000E  
                           ?_delay 0080                             _ADCON0 000FC2  
                           _ADRESH 000FC4                             _ADRESL 000FC3  
                           _T08BIT 007EAE                          ??i2_delay 0057  
                           i2l2351 02AA                             i2l2361 02C0  
                           i2l2349 02A2                             i2l2359 02BC  
                           i2l2873 0062                             i2l2879 006C  
                   get_AD_vaule@hv 0088                     get_AD_vaule@lv 0089  
                   get_AD_vaule@rv 0086                     get_AD_vaule@ts 0085  
                   _MotorDriveInit 02CE                     __CFG_XINST$OFF 000000  
                           delay@i 0082                             delay@j 0084  
                           delay@x 0080                             clear_0 01C4  
                           clear_1 01D8                             clear_2 01EA  
                     __pdataCOMRAM 006C                       __mediumconst 773A  
                           tblptrh 000FF7                             tblptrl 000FF6  
                           tblptru 000FF8            _InjectDepthNeedPulseNum 002B  
_InjectionStepMotorStepPulseMaxNum 0021                         __accesstop 0080  
          __end_of__initialization 01F0                    __CFG_PBADEN$OFF 000000  
           __end_of_MotorDriveInit 02F6                      ___rparam_used 000001  
                        ?_KEY_Init 0055                     __pcstackCOMRAM 0055  
                    __end_of_delay 0298              __size_of_get_AD_vaule 0078  
                        ?_BeepInit 0055                 _LCD_backlight_init 0338  
                          ??_delay 0082               __size_ofi2_LCD_Blink 0012  
                       __pbssBANK1 0100                         __pbssBANK2 0200  
              ?_LCD_backlight_init 0055                         __pnvCOMRAM 006A  
                  ?_MotorDriveInit 0055                         ??_KEY_Init 0080  
                     _get_AD_vaule 00C6                            ISR@temp 0069  
             ??_LCD_backlight_init 0080                         ??_BeepInit 0080  
               _LastNeedleFeedback 0043                            i2_delay 0298  
                          _DownKey 000D                            __Hparam 0000  
                          __Lparam 0000              _LastInjectionFeedback 0042  
                  __CFG_STVREN$OFF 000000                            __pcinit 01AA  
                          __ramtop 0600                            __ptext0 013E  
                          __ptext1 00C6                            __ptext2 01FE  
                          __ptext3 02CE                            __ptext4 0338  
                          __ptext5 02F6                            __ptext6 024E  
                          __ptext7 031C                            __ptext8 033E  
                          __ptext9 032A                       __size_of_ISR 00BE  
                        _LCD_Blink 02F6                     __pintcode_body 0012  
             end_of_initialization 01F0                      __Lmediumconst 773A  
                          int_func 0012                            postdec1 000FE5  
                          postinc0 000FEE                 _NeedleInitPosition 002D  
                        _PORTAbits 000F80                          _PORTBbits 000F81  
                        _PORTCbits 000F82                          _PORTDbits 000F83  
                        _PORTEbits 000F84                      ??_AD_ch0_init 0080  
                     _NeedleRunDir 0045                          _TRISAbits 000F92  
                        _TRISBbits 000F93                          _TRISCbits 000F94  
                        _TRISDbits 000F95                          _TRISEbits 000F96  
           _NeedleMotorAimPosition 002F                         ?_LCD_Blink 0055  
                __size_of_KEY_Init 000E                      __pidataCOMRAM 0344  
                _ContinueWorkState 0044                start_initialization 01AA  
                __size_of_BeepInit 0006                        __end_of_ISR 00C6  
                  _CurrentWorkPara 0050                __end_of_AD_ch0_init 0338  
                 ??_MotorDriveInit 0080         _NeedleMotorCurrentPosition 0031  
                 __CFG_LPT1OSC$OFF 000000                        __pbssCOMRAM 0001  
                    __pcstackBANK0 0080                      ??i2_LCD_Blink 005B  
                      ??_LCD_Blink 0086                           ?i2_delay 0055  
           _ContinueWorkTimePeriod 0027                  __CFG_CCP2MX$PORTC 000000  
                        __pintcode 0008                      __pmediumconst 773A  
      __size_of_LCD_backlight_init 0006                        _AD_ch0_init 032A  
                   __size_of_delay 004A                           _DDRAbits 000F92  
                         _DDRBbits 000F93                           _DDRCbits 000F94  
                         _DDRDbits 000F95                __end_ofi2_LCD_Blink 031C  
                         _LATCbits 000F8B                           _LATDbits 000F8C  
                         _LATEbits 000F8D              _InjectionMotorCurrent 003B  
                         _KEY_Init 031C                 _NeedleMotorCurrent 0039  
                        _prev_edge 004C                         _ADCON0bits 000FC2  
                         _BeepInit 033E                           i2delay@i 0057  
                         i2delay@j 0059                           i2delay@x 0055  
                        _write_buf 0100                        _INTCON2bits 000FF1  
                      _INTCON3bits 000FF0                           _OnOffKey 0019  
                   _StartInjectKey 0001                   __size_ofi2_delay 0036  
                         __Hrparam 0000                           __Lrparam 0000  
       _NeedleMotorFindZeroPosFlag 0046              _ContinueWorkTimeCount 0025  
                      i2_LCD_Blink 030A                           __ptext11 030A  
                         __ptext12 0298                KeyFuction@store_key 004D  
                         _cur_edge 004B                      __size_of_main 006C  
                    __size_of_buzz 0050                           _read_buf 0200  
                    ?_get_AD_vaule 0080                           int$flags 006D  
                       _INTCONbits 000FF2                           intlevel2 0000  
                    _StartWorkFlag 004F                     ??_get_AD_vaule 0082  
                    _KeyScanPeriod 004E                       ?_AD_ch0_init 0055  
        _InjectionMotorAimPosition 0033            __size_of_MotorDriveInit 0028  
